
kernel:     file format elf64-littleriscv


Disassembly of section .text:

0000000080000000 <_entry>:
    80000000:	0000a117          	auipc	sp,0xa
    80000004:	fa813103          	ld	sp,-88(sp) # 80009fa8 <_GLOBAL_OFFSET_TABLE_+0x78>
    80000008:	00001537          	lui	a0,0x1
    8000000c:	f14025f3          	csrr	a1,mhartid
    80000010:	00158593          	addi	a1,a1,1
    80000014:	02b50533          	mul	a0,a0,a1
    80000018:	00a10133          	add	sp,sp,a0
    8000001c:	414050ef          	jal	ra,80005430 <start>

0000000080000020 <spin>:
    80000020:	0000006f          	j	80000020 <spin>
	...

0000000080001000 <copy_and_swap>:
# a1 holds expected value
# a2 holds desired value
# a0 holds return value, 0 if successful, !0 otherwise
.global copy_and_swap
copy_and_swap:
    lr.w t0, (a0)          # Load original value.
    80001000:	100522af          	lr.w	t0,(a0)
    bne t0, a1, fail       # Doesn’t match, so fail.
    80001004:	00b29a63          	bne	t0,a1,80001018 <fail>
    sc.w t0, a2, (a0)      # Try to update.
    80001008:	18c522af          	sc.w	t0,a2,(a0)
    bnez t0, copy_and_swap # Retry if store-conditional failed.
    8000100c:	fe029ae3          	bnez	t0,80001000 <copy_and_swap>
    li a0, 0               # Set return to success.
    80001010:	00000513          	li	a0,0
    jr ra                  # Return.
    80001014:	00008067          	ret

0000000080001018 <fail>:
    fail:
    li a0, 1               # Set return to failure.
    80001018:	00100513          	li	a0,1
    8000101c:	00008067          	ret

0000000080001020 <_ZN5Riscv14supervisorTrapEt>:
.align 4
.global _ZN5Riscv14supervisorTrapEt
.type _ZN5Riscv14supervisorTrapEt, @function

_ZN5Riscv14supervisorTrapEt:
    addi sp, sp, -256
    80001020:	f0010113          	addi	sp,sp,-256
    .irp index, 0, 1, 2, 3, 4, 5, 6, 7, 8, 9, 10, 11, 12, 13, 14, 15, 16, 17, 18, 19, 20, 21, 22, 23, 24, 25, 26, 27, 28, 29, 30, 31
    sd x\index, \index * 8(sp)
    .endr
    80001024:	00013023          	sd	zero,0(sp)
    80001028:	00113423          	sd	ra,8(sp)
    8000102c:	00213823          	sd	sp,16(sp)
    80001030:	00313c23          	sd	gp,24(sp)
    80001034:	02413023          	sd	tp,32(sp)
    80001038:	02513423          	sd	t0,40(sp)
    8000103c:	02613823          	sd	t1,48(sp)
    80001040:	02713c23          	sd	t2,56(sp)
    80001044:	04813023          	sd	s0,64(sp)
    80001048:	04913423          	sd	s1,72(sp)
    8000104c:	04a13823          	sd	a0,80(sp)
    80001050:	04b13c23          	sd	a1,88(sp)
    80001054:	06c13023          	sd	a2,96(sp)
    80001058:	06d13423          	sd	a3,104(sp)
    8000105c:	06e13823          	sd	a4,112(sp)
    80001060:	06f13c23          	sd	a5,120(sp)
    80001064:	09013023          	sd	a6,128(sp)
    80001068:	09113423          	sd	a7,136(sp)
    8000106c:	09213823          	sd	s2,144(sp)
    80001070:	09313c23          	sd	s3,152(sp)
    80001074:	0b413023          	sd	s4,160(sp)
    80001078:	0b513423          	sd	s5,168(sp)
    8000107c:	0b613823          	sd	s6,176(sp)
    80001080:	0b713c23          	sd	s7,184(sp)
    80001084:	0d813023          	sd	s8,192(sp)
    80001088:	0d913423          	sd	s9,200(sp)
    8000108c:	0da13823          	sd	s10,208(sp)
    80001090:	0db13c23          	sd	s11,216(sp)
    80001094:	0fc13023          	sd	t3,224(sp)
    80001098:	0fd13423          	sd	t4,232(sp)
    8000109c:	0fe13823          	sd	t5,240(sp)
    800010a0:	0ff13c23          	sd	t6,248(sp)

    call _ZN5Riscv20handleSupervisorTrapEt
    800010a4:	5f8020ef          	jal	ra,8000369c <_ZN5Riscv20handleSupervisorTrapEt>

    .irp index, 0, 1, 2, 3, 4, 5, 6, 7, 8, 9, 10, 11, 12, 13, 14, 15, 16, 17, 18, 19, 20, 21, 22, 23, 24, 25, 26, 27, 28, 29, 30, 31
    ld x\index, \index * 8(sp)
    .endr
    800010a8:	00013003          	ld	zero,0(sp)
    800010ac:	00813083          	ld	ra,8(sp)
    800010b0:	01013103          	ld	sp,16(sp)
    800010b4:	01813183          	ld	gp,24(sp)
    800010b8:	02013203          	ld	tp,32(sp)
    800010bc:	02813283          	ld	t0,40(sp)
    800010c0:	03013303          	ld	t1,48(sp)
    800010c4:	03813383          	ld	t2,56(sp)
    800010c8:	04013403          	ld	s0,64(sp)
    800010cc:	04813483          	ld	s1,72(sp)
    800010d0:	05013503          	ld	a0,80(sp)
    800010d4:	05813583          	ld	a1,88(sp)
    800010d8:	06013603          	ld	a2,96(sp)
    800010dc:	06813683          	ld	a3,104(sp)
    800010e0:	07013703          	ld	a4,112(sp)
    800010e4:	07813783          	ld	a5,120(sp)
    800010e8:	08013803          	ld	a6,128(sp)
    800010ec:	08813883          	ld	a7,136(sp)
    800010f0:	09013903          	ld	s2,144(sp)
    800010f4:	09813983          	ld	s3,152(sp)
    800010f8:	0a013a03          	ld	s4,160(sp)
    800010fc:	0a813a83          	ld	s5,168(sp)
    80001100:	0b013b03          	ld	s6,176(sp)
    80001104:	0b813b83          	ld	s7,184(sp)
    80001108:	0c013c03          	ld	s8,192(sp)
    8000110c:	0c813c83          	ld	s9,200(sp)
    80001110:	0d013d03          	ld	s10,208(sp)
    80001114:	0d813d83          	ld	s11,216(sp)
    80001118:	0e013e03          	ld	t3,224(sp)
    8000111c:	0e813e83          	ld	t4,232(sp)
    80001120:	0f013f03          	ld	t5,240(sp)
    80001124:	0f813f83          	ld	t6,248(sp)
    addi sp, sp, 256
    80001128:	10010113          	addi	sp,sp,256
    8000112c:	10200073          	sret

0000000080001130 <_ZN3PCB13contextSwitchEPNS_7ContextES1_>:
.global _ZN3PCB13contextSwitchEPNS_7ContextES1_
.type _ZN3PCB13contextSwitchEPNS_7ContextES1_, @function
_ZN3PCB13contextSwitchEPNS_7ContextES1_:
    sd ra, 0 * 8(a0)
    80001130:	00153023          	sd	ra,0(a0) # 1000 <_entry-0x7ffff000>
    sd sp, 1 * 8(a0)
    80001134:	00253423          	sd	sp,8(a0)

    ld ra, 0 * 8(a1)
    80001138:	0005b083          	ld	ra,0(a1)
    ld sp, 1 * 8(a1)
    8000113c:	0085b103          	ld	sp,8(a1)

    80001140:	00008067          	ret

0000000080001144 <_Z9mem_allocm>:
#include "../h/syscall_c.hpp"
#include "../h/riscv.hpp"
#include "../h/ksyscall.hpp"
#include "../h/PCB.hpp"
void* mem_alloc(size_t size){
    80001144:	ff010113          	addi	sp,sp,-16
    80001148:	00813423          	sd	s0,8(sp)
    8000114c:	01010413          	addi	s0,sp,16
    uint8 number = ksyscall::MEM_ALLOC;
    __asm__ volatile("mv a1, %[size]" : : [size] "r" (size));
    80001150:	00050593          	mv	a1,a0
    __asm__ volatile("mv a0, %[number]" : : [number] "r" (number));
    80001154:	00100793          	li	a5,1
    80001158:	00078513          	mv	a0,a5
    __asm__ volatile("ecall");
    8000115c:	00000073          	ecall
    uint64 res;
    __asm__ volatile("mv %[res], a0" : [res] "=r" (res));
    80001160:	00050513          	mv	a0,a0
    return (void*)res;
}
    80001164:	00813403          	ld	s0,8(sp)
    80001168:	01010113          	addi	sp,sp,16
    8000116c:	00008067          	ret

0000000080001170 <_Z8mem_freePv>:

int mem_free(void* addr){
    80001170:	ff010113          	addi	sp,sp,-16
    80001174:	00813423          	sd	s0,8(sp)
    80001178:	01010413          	addi	s0,sp,16
    if(addr == nullptr) return -1;
    8000117c:	02050463          	beqz	a0,800011a4 <_Z8mem_freePv+0x34>
    uint8 number = ksyscall::MEM_FREE;
    __asm__ volatile("mv a1, %[addr]" : : [addr] "r" (addr));
    80001180:	00050593          	mv	a1,a0
    __asm__ volatile("mv a0, %[number]" : : [number] "r" (number));
    80001184:	00200793          	li	a5,2
    80001188:	00078513          	mv	a0,a5
    __asm__ volatile("ecall");
    8000118c:	00000073          	ecall
    int res;
    __asm__ volatile("mv %[res], a0" : [res] "=r" (res));
    80001190:	00050513          	mv	a0,a0
    80001194:	0005051b          	sext.w	a0,a0
    return res;
}
    80001198:	00813403          	ld	s0,8(sp)
    8000119c:	01010113          	addi	sp,sp,16
    800011a0:	00008067          	ret
    if(addr == nullptr) return -1;
    800011a4:	fff00513          	li	a0,-1
    800011a8:	ff1ff06f          	j	80001198 <_Z8mem_freePv+0x28>

00000000800011ac <_Z13thread_createPP3PCBPFvPvES2_>:

int thread_create(thread_t *handle, void(*start_routine)(void *), void* arg){
    800011ac:	ff010113          	addi	sp,sp,-16
    800011b0:	00813423          	sd	s0,8(sp)
    800011b4:	01010413          	addi	s0,sp,16
    uint8 number = ksyscall::THREAD_CREATE;
    __asm__ volatile("mv t1, %[handle]" : : [handle] "r" (handle)); // There will be calling of mem_alloc and it will corrupt a0 reg
    800011b8:	00050313          	mv	t1,a0
    __asm__ volatile("mv a0, %[number]" : : [number] "r" (number));
    800011bc:	00b00793          	li	a5,11
    800011c0:	00078513          	mv	a0,a5
    __asm__ volatile("ecall");
    800011c4:	00000073          	ecall
    __asm__ volatile("mv a0, t1"); // Because of reason mentioned above we are restoring handle;
    800011c8:	00030513          	mv	a0,t1
    PCB* tmp;
    __asm__ volatile("mv %[tmp], a3" : [tmp] "=r" (tmp));
    800011cc:	00068793          	mv	a5,a3
    *handle = tmp;
    800011d0:	00f53023          	sd	a5,0(a0)
    if(*handle == nullptr) return -1;
    800011d4:	00078a63          	beqz	a5,800011e8 <_Z13thread_createPP3PCBPFvPvES2_+0x3c>
    return 0;
    800011d8:	00000513          	li	a0,0
}
    800011dc:	00813403          	ld	s0,8(sp)
    800011e0:	01010113          	addi	sp,sp,16
    800011e4:	00008067          	ret
    if(*handle == nullptr) return -1;
    800011e8:	fff00513          	li	a0,-1
    800011ec:	ff1ff06f          	j	800011dc <_Z13thread_createPP3PCBPFvPvES2_+0x30>

00000000800011f0 <_Z11thread_exitv>:

int thread_exit(){
    800011f0:	ff010113          	addi	sp,sp,-16
    800011f4:	00813423          	sd	s0,8(sp)
    800011f8:	01010413          	addi	s0,sp,16
    uint8 number = ksyscall::THREAD_EXIT;
    __asm__ volatile("mv a0, %[number]" : : [number] "r" (number));
    800011fc:	00c00793          	li	a5,12
    80001200:	00078513          	mv	a0,a5
    __asm__ volatile("ecall");
    80001204:	00000073          	ecall
    return 0;
}
    80001208:	00000513          	li	a0,0
    8000120c:	00813403          	ld	s0,8(sp)
    80001210:	01010113          	addi	sp,sp,16
    80001214:	00008067          	ret

0000000080001218 <_Z15thread_dispatchv>:

void thread_dispatch() {
    80001218:	ff010113          	addi	sp,sp,-16
    8000121c:	00813423          	sd	s0,8(sp)
    80001220:	01010413          	addi	s0,sp,16
    uint8 number = ksyscall::THREAD_DISPATCH;
    __asm__ volatile("mv a0, %[number]" : : [number] "r" (number));
    80001224:	00d00793          	li	a5,13
    80001228:	00078513          	mv	a0,a5
    __asm__ volatile("ecall");
    8000122c:	00000073          	ecall
}
    80001230:	00813403          	ld	s0,8(sp)
    80001234:	01010113          	addi	sp,sp,16
    80001238:	00008067          	ret

000000008000123c <_Z8sem_openPP3SEMj>:

int sem_open(sem_t* handle, unsigned init){
    8000123c:	ff010113          	addi	sp,sp,-16
    80001240:	00813423          	sd	s0,8(sp)
    80001244:	01010413          	addi	s0,sp,16
    uint8 number = ksyscall::SEM_OPEN;
    __asm__ volatile("mv t1, %[handle]" : : [handle] "r" (handle));
    80001248:	00050313          	mv	t1,a0
    __asm__ volatile("mv a0, %[number]" : : [number] "r" (number));
    8000124c:	01500793          	li	a5,21
    80001250:	00078513          	mv	a0,a5
    __asm__ volatile("ecall");
    80001254:	00000073          	ecall
    __asm__ volatile("mv a0, t1");
    80001258:	00030513          	mv	a0,t1
    SEM* tmp;
    __asm__ volatile("mv %[tmp], a3" : [tmp] "=r" (tmp));
    8000125c:	00068793          	mv	a5,a3
    *handle = tmp;
    80001260:	00f53023          	sd	a5,0(a0)
    if(handle == nullptr) return -1;
    80001264:	00050a63          	beqz	a0,80001278 <_Z8sem_openPP3SEMj+0x3c>
    return 0;
    80001268:	00000513          	li	a0,0
}
    8000126c:	00813403          	ld	s0,8(sp)
    80001270:	01010113          	addi	sp,sp,16
    80001274:	00008067          	ret
    if(handle == nullptr) return -1;
    80001278:	fff00513          	li	a0,-1
    8000127c:	ff1ff06f          	j	8000126c <_Z8sem_openPP3SEMj+0x30>

0000000080001280 <_Z9sem_closeP3SEM>:

int sem_close(sem_t handle){
    80001280:	ff010113          	addi	sp,sp,-16
    80001284:	00813423          	sd	s0,8(sp)
    80001288:	01010413          	addi	s0,sp,16
    if(handle == nullptr) return -1;
    8000128c:	02050463          	beqz	a0,800012b4 <_Z9sem_closeP3SEM+0x34>

    uint8 number = ksyscall::SEM_CLOSE;
    __asm__ volatile("mv a1, a0");
    80001290:	00050593          	mv	a1,a0
    __asm__ volatile("mv a0, %[number]" : : [number] "r" (number));
    80001294:	01600793          	li	a5,22
    80001298:	00078513          	mv	a0,a5
    __asm__ volatile("ecall");
    8000129c:	00000073          	ecall
    int res;
    __asm__ volatile("mv %[res], a0" : [res] "=r" (res));
    800012a0:	00050513          	mv	a0,a0
    800012a4:	0005051b          	sext.w	a0,a0
    return res;
}
    800012a8:	00813403          	ld	s0,8(sp)
    800012ac:	01010113          	addi	sp,sp,16
    800012b0:	00008067          	ret
    if(handle == nullptr) return -1;
    800012b4:	fff00513          	li	a0,-1
    800012b8:	ff1ff06f          	j	800012a8 <_Z9sem_closeP3SEM+0x28>

00000000800012bc <_Z8sem_waitP3SEM>:

int sem_wait(sem_t id){
    800012bc:	ff010113          	addi	sp,sp,-16
    800012c0:	00813423          	sd	s0,8(sp)
    800012c4:	01010413          	addi	s0,sp,16
    if(id == nullptr) return -1;
    800012c8:	02050463          	beqz	a0,800012f0 <_Z8sem_waitP3SEM+0x34>
    uint8 number = ksyscall::SEM_WAIT;
    __asm__ volatile("mv a1, a0");
    800012cc:	00050593          	mv	a1,a0
    __asm__ volatile("mv a0, %[number]" : : [number] "r" (number));
    800012d0:	01700793          	li	a5,23
    800012d4:	00078513          	mv	a0,a5
    __asm__ volatile("ecall");
    800012d8:	00000073          	ecall
    int res;
    __asm__ volatile("mv %[res], a0" : [res] "=r" (res));
    800012dc:	00050513          	mv	a0,a0
    800012e0:	0005051b          	sext.w	a0,a0
    return res;
}
    800012e4:	00813403          	ld	s0,8(sp)
    800012e8:	01010113          	addi	sp,sp,16
    800012ec:	00008067          	ret
    if(id == nullptr) return -1;
    800012f0:	fff00513          	li	a0,-1
    800012f4:	ff1ff06f          	j	800012e4 <_Z8sem_waitP3SEM+0x28>

00000000800012f8 <_Z10sem_signalP3SEM>:

int sem_signal(sem_t id){
    800012f8:	ff010113          	addi	sp,sp,-16
    800012fc:	00813423          	sd	s0,8(sp)
    80001300:	01010413          	addi	s0,sp,16
    if(id == nullptr) return -1;
    80001304:	02050463          	beqz	a0,8000132c <_Z10sem_signalP3SEM+0x34>
    uint8 number = ksyscall::SEM_SIGNAL;
    __asm__ volatile("mv a1, a0");
    80001308:	00050593          	mv	a1,a0
    __asm__ volatile("mv a0, %[number]" : : [number] "r" (number));
    8000130c:	01800793          	li	a5,24
    80001310:	00078513          	mv	a0,a5
    __asm__ volatile("ecall");
    80001314:	00000073          	ecall
    int res;
    __asm__ volatile("mv %[res], a0" : [res] "=r" (res));
    80001318:	00050513          	mv	a0,a0
    8000131c:	0005051b          	sext.w	a0,a0
    return res;
}
    80001320:	00813403          	ld	s0,8(sp)
    80001324:	01010113          	addi	sp,sp,16
    80001328:	00008067          	ret
    if(id == nullptr) return -1;
    8000132c:	fff00513          	li	a0,-1
    80001330:	ff1ff06f          	j	80001320 <_Z10sem_signalP3SEM+0x28>

0000000080001334 <_Z10time_sleepm>:

int time_sleep(time_t){
    80001334:	ff010113          	addi	sp,sp,-16
    80001338:	00813423          	sd	s0,8(sp)
    8000133c:	01010413          	addi	s0,sp,16
    uint8 number = ksyscall::TIME_SLEEP;
    __asm__ volatile("mv a1, a0");
    80001340:	00050593          	mv	a1,a0
    __asm__ volatile("mv a0, %[number]" : : [number] "r" (number));
    80001344:	01f00793          	li	a5,31
    80001348:	00078513          	mv	a0,a5
    __asm__ volatile("ecall");
    8000134c:	00000073          	ecall
    int res;
    __asm__ volatile("mv %[res], a0" : [res] "=r" (res));
    80001350:	00050793          	mv	a5,a0
    return 0;
}
    80001354:	00000513          	li	a0,0
    80001358:	00813403          	ld	s0,8(sp)
    8000135c:	01010113          	addi	sp,sp,16
    80001360:	00008067          	ret

0000000080001364 <_Z4getcv>:

char getc(){
    80001364:	ff010113          	addi	sp,sp,-16
    80001368:	00813423          	sd	s0,8(sp)
    8000136c:	01010413          	addi	s0,sp,16
    uint8 number = ksyscall::GETC;
    __asm__ volatile("mv a0, %[number]" : : [number] "r" (number));
    80001370:	02900793          	li	a5,41
    80001374:	00078513          	mv	a0,a5
    __asm__ volatile("ecall");
    80001378:	00000073          	ecall
    char res;
    __asm__ volatile("mv %[res], a0" : [res] "=r" (res));
    8000137c:	00050513          	mv	a0,a0
    return res;
}
    80001380:	0ff57513          	andi	a0,a0,255
    80001384:	00813403          	ld	s0,8(sp)
    80001388:	01010113          	addi	sp,sp,16
    8000138c:	00008067          	ret

0000000080001390 <_Z4putcc>:

void putc(char c){
    80001390:	ff010113          	addi	sp,sp,-16
    80001394:	00813423          	sd	s0,8(sp)
    80001398:	01010413          	addi	s0,sp,16
    uint8 number = ksyscall::PUTC;
    __asm__ volatile("mv a1, a0");
    8000139c:	00050593          	mv	a1,a0
    __asm__ volatile("mv a0, %[number]" : : [number] "r" (number));
    800013a0:	02a00793          	li	a5,42
    800013a4:	00078513          	mv	a0,a5
    __asm__ volatile("ecall");
    800013a8:	00000073          	ecall
}
    800013ac:	00813403          	ld	s0,8(sp)
    800013b0:	01010113          	addi	sp,sp,16
    800013b4:	00008067          	ret

00000000800013b8 <_ZN10KernelSlab16kernel_slab_initEv>:
#include "../h/KernelSlab.hpp"

KernelSlab::caches *KernelSlab::head = 0;

void KernelSlab::kernel_slab_init() {
    800013b8:	ff010113          	addi	sp,sp,-16
    800013bc:	00813423          	sd	s0,8(sp)
    800013c0:	01010413          	addi	s0,sp,16
    head = 0;
    800013c4:	00009797          	auipc	a5,0x9
    800013c8:	c807be23          	sd	zero,-868(a5) # 8000a060 <_ZN10KernelSlab4headE>
}
    800013cc:	00813403          	ld	s0,8(sp)
    800013d0:	01010113          	addi	sp,sp,16
    800013d4:	00008067          	ret

00000000800013d8 <_ZN10KernelSlab8addCacheEP10kmem_cache>:

void KernelSlab::addCache(kmem_cache *elem) {
    800013d8:	fe010113          	addi	sp,sp,-32
    800013dc:	00113c23          	sd	ra,24(sp)
    800013e0:	00813823          	sd	s0,16(sp)
    800013e4:	00913423          	sd	s1,8(sp)
    800013e8:	02010413          	addi	s0,sp,32
    800013ec:	00050493          	mv	s1,a0
    caches *new_cache = (caches *)Buddy::buddy_allocate(sizeof(caches));
    800013f0:	01800513          	li	a0,24
    800013f4:	00000097          	auipc	ra,0x0
    800013f8:	774080e7          	jalr	1908(ra) # 80001b68 <_ZN5Buddy14buddy_allocateEm>
    new_cache->elem = elem;
    800013fc:	00953023          	sd	s1,0(a0)
    new_cache->next = 0;
    80001400:	00053423          	sd	zero,8(a0)
    new_cache->prev = 0;
    80001404:	00053823          	sd	zero,16(a0)
    if(head == 0){
    80001408:	00009797          	auipc	a5,0x9
    8000140c:	c587b783          	ld	a5,-936(a5) # 8000a060 <_ZN10KernelSlab4headE>
    80001410:	02078663          	beqz	a5,8000143c <_ZN10KernelSlab8addCacheEP10kmem_cache+0x64>
        head = new_cache;
    }else{
        caches *tmp = head;
        while(tmp->next != 0){
    80001414:	00078713          	mv	a4,a5
    80001418:	0087b783          	ld	a5,8(a5)
    8000141c:	fe079ce3          	bnez	a5,80001414 <_ZN10KernelSlab8addCacheEP10kmem_cache+0x3c>
            tmp = tmp->next;
        }
        tmp->next = new_cache;
    80001420:	00a73423          	sd	a0,8(a4)
        new_cache->prev = tmp;
    80001424:	00e53823          	sd	a4,16(a0)
    }
}
    80001428:	01813083          	ld	ra,24(sp)
    8000142c:	01013403          	ld	s0,16(sp)
    80001430:	00813483          	ld	s1,8(sp)
    80001434:	02010113          	addi	sp,sp,32
    80001438:	00008067          	ret
        head = new_cache;
    8000143c:	00009797          	auipc	a5,0x9
    80001440:	c2a7b223          	sd	a0,-988(a5) # 8000a060 <_ZN10KernelSlab4headE>
    80001444:	fe5ff06f          	j	80001428 <_ZN10KernelSlab8addCacheEP10kmem_cache+0x50>

0000000080001448 <_ZN10KernelSlab11deleteCacheEP10kmem_cache>:

int KernelSlab::deleteCache(kmem_cache *elem) {
    80001448:	ff010113          	addi	sp,sp,-16
    8000144c:	00813423          	sd	s0,8(sp)
    80001450:	01010413          	addi	s0,sp,16
    caches *tmp = head;
    80001454:	00009797          	auipc	a5,0x9
    80001458:	c0c7b783          	ld	a5,-1012(a5) # 8000a060 <_ZN10KernelSlab4headE>
    while(tmp->next != 0){
    8000145c:	00078713          	mv	a4,a5
    80001460:	0087b783          	ld	a5,8(a5)
    80001464:	00078a63          	beqz	a5,80001478 <_ZN10KernelSlab11deleteCacheEP10kmem_cache+0x30>
        if(tmp->elem == elem){
    80001468:	00073703          	ld	a4,0(a4)
    8000146c:	fea718e3          	bne	a4,a0,8000145c <_ZN10KernelSlab11deleteCacheEP10kmem_cache+0x14>
            //delete node
            return 0;
    80001470:	00000513          	li	a0,0
    80001474:	0080006f          	j	8000147c <_ZN10KernelSlab11deleteCacheEP10kmem_cache+0x34>
        }
        tmp = tmp->next;
    }
    return -1;
    80001478:	fff00513          	li	a0,-1
    8000147c:	00813403          	ld	s0,8(sp)
    80001480:	01010113          	addi	sp,sp,16
    80001484:	00008067          	ret

0000000080001488 <_ZN3PCB13threadWrapperEv>:
    running = Scheduler::get();

    PCB::contextSwitch(&old->context, &running->context);
}

void PCB::threadWrapper() {
    80001488:	fe010113          	addi	sp,sp,-32
    8000148c:	00113c23          	sd	ra,24(sp)
    80001490:	00813823          	sd	s0,16(sp)
    80001494:	00913423          	sd	s1,8(sp)
    80001498:	02010413          	addi	s0,sp,32
    Riscv::popSppSpie();
    8000149c:	00002097          	auipc	ra,0x2
    800014a0:	1a0080e7          	jalr	416(ra) # 8000363c <_ZN5Riscv10popSppSpieEv>
    running->body(running->args);
    800014a4:	00009497          	auipc	s1,0x9
    800014a8:	bc448493          	addi	s1,s1,-1084 # 8000a068 <_ZN3PCB7runningE>
    800014ac:	0004b783          	ld	a5,0(s1)
    800014b0:	0087b703          	ld	a4,8(a5)
    800014b4:	0107b503          	ld	a0,16(a5)
    800014b8:	000700e7          	jalr	a4
    running->setFinished(true);
    800014bc:	0004b703          	ld	a4,0(s1)

    static uint64 get_thread_counter() {return PCB::thread_counter;}

    bool isFinished() const { return finished; }

    void setFinished(bool value) {if(value){ thread_counter--; } finished = value;}
    800014c0:	0084b783          	ld	a5,8(s1)
    800014c4:	fff78793          	addi	a5,a5,-1
    800014c8:	00f4b423          	sd	a5,8(s1)
    800014cc:	00100793          	li	a5,1
    800014d0:	02f70c23          	sb	a5,56(a4)
    thread_dispatch();
    800014d4:	00000097          	auipc	ra,0x0
    800014d8:	d44080e7          	jalr	-700(ra) # 80001218 <_Z15thread_dispatchv>
}
    800014dc:	01813083          	ld	ra,24(sp)
    800014e0:	01013403          	ld	s0,16(sp)
    800014e4:	00813483          	ld	s1,8(sp)
    800014e8:	02010113          	addi	sp,sp,32
    800014ec:	00008067          	ret

00000000800014f0 <_ZN3PCB12createThreadEPFvPvES0_>:
PCB *PCB::createThread(Body body, void* args) {
    800014f0:	fd010113          	addi	sp,sp,-48
    800014f4:	02113423          	sd	ra,40(sp)
    800014f8:	02813023          	sd	s0,32(sp)
    800014fc:	00913c23          	sd	s1,24(sp)
    80001500:	01213823          	sd	s2,16(sp)
    80001504:	01313423          	sd	s3,8(sp)
    80001508:	03010413          	addi	s0,sp,48
    8000150c:	00050913          	mv	s2,a0
    80001510:	00058993          	mv	s3,a1
    PCB* ret = (PCB *)kmem_cache_alloc(cache);
    80001514:	00009517          	auipc	a0,0x9
    80001518:	b6453503          	ld	a0,-1180(a0) # 8000a078 <_ZN3PCB5cacheE>
    8000151c:	00004097          	auipc	ra,0x4
    80001520:	c00080e7          	jalr	-1024(ra) # 8000511c <_Z16kmem_cache_allocP10kmem_cache>
    80001524:	00050493          	mv	s1,a0
    if(ret == nullptr) return nullptr;
    80001528:	08050663          	beqz	a0,800015b4 <_ZN3PCB12createThreadEPFvPvES0_+0xc4>
    ret->body = body;
    8000152c:	01253423          	sd	s2,8(a0)
    ret->args = (ret->body != nullptr ? args : nullptr);
    80001530:	0a090263          	beqz	s2,800015d4 <_ZN3PCB12createThreadEPFvPvES0_+0xe4>
    80001534:	0134b823          	sd	s3,16(s1)
    ret->stack = (ret->body != nullptr ? (uint64 *)kmalloc(sizeof(uint64)*STACK_SIZE) : 0);
    80001538:	0a090263          	beqz	s2,800015dc <_ZN3PCB12createThreadEPFvPvES0_+0xec>
    8000153c:	00008537          	lui	a0,0x8
    80001540:	00004097          	auipc	ra,0x4
    80001544:	b8c080e7          	jalr	-1140(ra) # 800050cc <_Z7kmallocm>
    80001548:	00050913          	mv	s2,a0
    8000154c:	0124bc23          	sd	s2,24(s1)
    if(!ret->stack && ret->body != nullptr) {
    80001550:	08090a63          	beqz	s2,800015e4 <_ZN3PCB12createThreadEPFvPvES0_+0xf4>
             ret->stack != 0 ? (uint64) &ret->stack[STACK_SIZE-1] : 0
    80001554:	0a090a63          	beqz	s2,80001608 <_ZN3PCB12createThreadEPFvPvES0_+0x118>
    80001558:	00008537          	lui	a0,0x8
    8000155c:	ff850513          	addi	a0,a0,-8 # 7ff8 <_entry-0x7fff8008>
    80001560:	00a90933          	add	s2,s2,a0
    ret->context = {(uint64) &threadWrapper,
    80001564:	00000797          	auipc	a5,0x0
    80001568:	f2478793          	addi	a5,a5,-220 # 80001488 <_ZN3PCB13threadWrapperEv>
    8000156c:	02f4b023          	sd	a5,32(s1)
    80001570:	0324b423          	sd	s2,40(s1)
    ret->timeSlice = TIME_SLICE;
    80001574:	00200793          	li	a5,2
    80001578:	02f4b823          	sd	a5,48(s1)
    ret->finished = false;
    8000157c:	02048c23          	sb	zero,56(s1)
    if(ret->body != 0) {
    80001580:	0084b783          	ld	a5,8(s1)
    80001584:	00078e63          	beqz	a5,800015a0 <_ZN3PCB12createThreadEPFvPvES0_+0xb0>
        if(Scheduler::put(ret) == -1){
    80001588:	00048513          	mv	a0,s1
    8000158c:	00003097          	auipc	ra,0x3
    80001590:	8b8080e7          	jalr	-1864(ra) # 80003e44 <_ZN9Scheduler3putEP3PCB>
    80001594:	fff00793          	li	a5,-1
    80001598:	06f50c63          	beq	a0,a5,80001610 <_ZN3PCB12createThreadEPFvPvES0_+0x120>
        ret->status = READY;
    8000159c:	0004a023          	sw	zero,0(s1)
    thread_counter++;
    800015a0:	00009717          	auipc	a4,0x9
    800015a4:	ac870713          	addi	a4,a4,-1336 # 8000a068 <_ZN3PCB7runningE>
    800015a8:	00873783          	ld	a5,8(a4)
    800015ac:	00178793          	addi	a5,a5,1
    800015b0:	00f73423          	sd	a5,8(a4)
}
    800015b4:	00048513          	mv	a0,s1
    800015b8:	02813083          	ld	ra,40(sp)
    800015bc:	02013403          	ld	s0,32(sp)
    800015c0:	01813483          	ld	s1,24(sp)
    800015c4:	01013903          	ld	s2,16(sp)
    800015c8:	00813983          	ld	s3,8(sp)
    800015cc:	03010113          	addi	sp,sp,48
    800015d0:	00008067          	ret
    ret->args = (ret->body != nullptr ? args : nullptr);
    800015d4:	00000993          	li	s3,0
    800015d8:	f5dff06f          	j	80001534 <_ZN3PCB12createThreadEPFvPvES0_+0x44>
    ret->stack = (ret->body != nullptr ? (uint64 *)kmalloc(sizeof(uint64)*STACK_SIZE) : 0);
    800015dc:	00000913          	li	s2,0
    800015e0:	f6dff06f          	j	8000154c <_ZN3PCB12createThreadEPFvPvES0_+0x5c>
    if(!ret->stack && ret->body != nullptr) {
    800015e4:	0084b783          	ld	a5,8(s1)
    800015e8:	f60786e3          	beqz	a5,80001554 <_ZN3PCB12createThreadEPFvPvES0_+0x64>
        kmem_cache_free(cache, (void *)ret);
    800015ec:	00048593          	mv	a1,s1
    800015f0:	00009517          	auipc	a0,0x9
    800015f4:	a8853503          	ld	a0,-1400(a0) # 8000a078 <_ZN3PCB5cacheE>
    800015f8:	00004097          	auipc	ra,0x4
    800015fc:	b4c080e7          	jalr	-1204(ra) # 80005144 <_Z15kmem_cache_freeP10kmem_cachePv>
        return nullptr;
    80001600:	00090493          	mv	s1,s2
    80001604:	fb1ff06f          	j	800015b4 <_ZN3PCB12createThreadEPFvPvES0_+0xc4>
             ret->stack != 0 ? (uint64) &ret->stack[STACK_SIZE-1] : 0
    80001608:	00000913          	li	s2,0
    8000160c:	f59ff06f          	j	80001564 <_ZN3PCB12createThreadEPFvPvES0_+0x74>
            kfree((void *)ret->stack);
    80001610:	0184b503          	ld	a0,24(s1)
    80001614:	00004097          	auipc	ra,0x4
    80001618:	ae0080e7          	jalr	-1312(ra) # 800050f4 <_Z5kfreePKv>
            kmem_cache_free(cache, (void *)ret);
    8000161c:	00048593          	mv	a1,s1
    80001620:	00009517          	auipc	a0,0x9
    80001624:	a5853503          	ld	a0,-1448(a0) # 8000a078 <_ZN3PCB5cacheE>
    80001628:	00004097          	auipc	ra,0x4
    8000162c:	b1c080e7          	jalr	-1252(ra) # 80005144 <_Z15kmem_cache_freeP10kmem_cachePv>
            return nullptr;
    80001630:	00000493          	li	s1,0
    80001634:	f81ff06f          	j	800015b4 <_ZN3PCB12createThreadEPFvPvES0_+0xc4>

0000000080001638 <_ZN3PCB8dispatchEv>:
void PCB::dispatch() {
    80001638:	fe010113          	addi	sp,sp,-32
    8000163c:	00113c23          	sd	ra,24(sp)
    80001640:	00813823          	sd	s0,16(sp)
    80001644:	00913423          	sd	s1,8(sp)
    80001648:	02010413          	addi	s0,sp,32
    PCB *old = running;
    8000164c:	00009497          	auipc	s1,0x9
    80001650:	a1c4b483          	ld	s1,-1508(s1) # 8000a068 <_ZN3PCB7runningE>
    bool isFinished() const { return finished; }
    80001654:	0384c783          	lbu	a5,56(s1)
    if(!old->isFinished() && old->status != ThreadStatus::BLOCKED) { Scheduler::put(old);}
    80001658:	00079863          	bnez	a5,80001668 <_ZN3PCB8dispatchEv+0x30>
    8000165c:	0004a703          	lw	a4,0(s1)
    80001660:	00100793          	li	a5,1
    80001664:	02f71c63          	bne	a4,a5,8000169c <_ZN3PCB8dispatchEv+0x64>
    running = Scheduler::get();
    80001668:	00002097          	auipc	ra,0x2
    8000166c:	7ac080e7          	jalr	1964(ra) # 80003e14 <_ZN9Scheduler3getEv>
    80001670:	00009797          	auipc	a5,0x9
    80001674:	9ea7bc23          	sd	a0,-1544(a5) # 8000a068 <_ZN3PCB7runningE>
    PCB::contextSwitch(&old->context, &running->context);
    80001678:	02050593          	addi	a1,a0,32
    8000167c:	02048513          	addi	a0,s1,32
    80001680:	00000097          	auipc	ra,0x0
    80001684:	ab0080e7          	jalr	-1360(ra) # 80001130 <_ZN3PCB13contextSwitchEPNS_7ContextES1_>
}
    80001688:	01813083          	ld	ra,24(sp)
    8000168c:	01013403          	ld	s0,16(sp)
    80001690:	00813483          	ld	s1,8(sp)
    80001694:	02010113          	addi	sp,sp,32
    80001698:	00008067          	ret
    if(!old->isFinished() && old->status != ThreadStatus::BLOCKED) { Scheduler::put(old);}
    8000169c:	00048513          	mv	a0,s1
    800016a0:	00002097          	auipc	ra,0x2
    800016a4:	7a4080e7          	jalr	1956(ra) # 80003e44 <_ZN9Scheduler3putEP3PCB>
    800016a8:	fc1ff06f          	j	80001668 <_ZN3PCB8dispatchEv+0x30>

00000000800016ac <_ZN3PCB10exitThreadEv>:
void PCB::exitThread() {
    800016ac:	ff010113          	addi	sp,sp,-16
    800016b0:	00113423          	sd	ra,8(sp)
    800016b4:	00813023          	sd	s0,0(sp)
    800016b8:	01010413          	addi	s0,sp,16
    running->setFinished(true);
    800016bc:	00009797          	auipc	a5,0x9
    800016c0:	9ac78793          	addi	a5,a5,-1620 # 8000a068 <_ZN3PCB7runningE>
    800016c4:	0007b683          	ld	a3,0(a5)
    void setFinished(bool value) {if(value){ thread_counter--; } finished = value;}
    800016c8:	0087b703          	ld	a4,8(a5)
    800016cc:	fff70713          	addi	a4,a4,-1
    800016d0:	00e7b423          	sd	a4,8(a5)
    800016d4:	00100793          	li	a5,1
    800016d8:	02f68c23          	sb	a5,56(a3)
    dispatch();
    800016dc:	00000097          	auipc	ra,0x0
    800016e0:	f5c080e7          	jalr	-164(ra) # 80001638 <_ZN3PCB8dispatchEv>
}
    800016e4:	00813083          	ld	ra,8(sp)
    800016e8:	00013403          	ld	s0,0(sp)
    800016ec:	01010113          	addi	sp,sp,16
    800016f0:	00008067          	ret

00000000800016f4 <_ZN3PCB11addToSleepQEm>:

int PCB::addToSleepQ(time_t time){
    800016f4:	fe010113          	addi	sp,sp,-32
    800016f8:	00113c23          	sd	ra,24(sp)
    800016fc:	00813823          	sd	s0,16(sp)
    80001700:	00913423          	sd	s1,8(sp)
    80001704:	02010413          	addi	s0,sp,32
    80001708:	00050593          	mv	a1,a0
    SleepQ::put(running, time);
    8000170c:	00009497          	auipc	s1,0x9
    80001710:	95c48493          	addi	s1,s1,-1700 # 8000a068 <_ZN3PCB7runningE>
    80001714:	0004b503          	ld	a0,0(s1)
    80001718:	00002097          	auipc	ra,0x2
    8000171c:	540080e7          	jalr	1344(ra) # 80003c58 <_ZN6SleepQ3putEP3PCBm>
    running->status = ThreadStatus::BLOCKED;
    80001720:	0004b783          	ld	a5,0(s1)
    80001724:	00100713          	li	a4,1
    80001728:	00e7a023          	sw	a4,0(a5)
    dispatch();
    8000172c:	00000097          	auipc	ra,0x0
    80001730:	f0c080e7          	jalr	-244(ra) # 80001638 <_ZN3PCB8dispatchEv>
    return 0;
}
    80001734:	00000513          	li	a0,0
    80001738:	01813083          	ld	ra,24(sp)
    8000173c:	01013403          	ld	s0,16(sp)
    80001740:	00813483          	ld	s1,8(sp)
    80001744:	02010113          	addi	sp,sp,32
    80001748:	00008067          	ret

000000008000174c <_ZN3PCB8wakingUpEv>:

void PCB::wakingUp() {
    8000174c:	ff010113          	addi	sp,sp,-16
    80001750:	00113423          	sd	ra,8(sp)
    80001754:	00813023          	sd	s0,0(sp)
    80001758:	01010413          	addi	s0,sp,16
    SleepQ::update();
    8000175c:	00002097          	auipc	ra,0x2
    80001760:	684080e7          	jalr	1668(ra) # 80003de0 <_ZN6SleepQ6updateEv>
    if(SleepQ::head != nullptr){
    80001764:	00009797          	auipc	a5,0x9
    80001768:	8747b783          	ld	a5,-1932(a5) # 80009fd8 <_GLOBAL_OFFSET_TABLE_+0xa8>
    8000176c:	0007b783          	ld	a5,0(a5)
    80001770:	00078663          	beqz	a5,8000177c <_ZN3PCB8wakingUpEv+0x30>
        if(SleepQ::head->rang <= 0) {
    80001774:	0087b783          	ld	a5,8(a5)
    80001778:	00078a63          	beqz	a5,8000178c <_ZN3PCB8wakingUpEv+0x40>
            PCB *tmp = SleepQ::get();
            tmp->status = ThreadStatus::READY;
            Scheduler::put(tmp);
        }
    }
}
    8000177c:	00813083          	ld	ra,8(sp)
    80001780:	00013403          	ld	s0,0(sp)
    80001784:	01010113          	addi	sp,sp,16
    80001788:	00008067          	ret
            PCB *tmp = SleepQ::get();
    8000178c:	00002097          	auipc	ra,0x2
    80001790:	5e4080e7          	jalr	1508(ra) # 80003d70 <_ZN6SleepQ3getEv>
            tmp->status = ThreadStatus::READY;
    80001794:	00052023          	sw	zero,0(a0)
            Scheduler::put(tmp);
    80001798:	00002097          	auipc	ra,0x2
    8000179c:	6ac080e7          	jalr	1708(ra) # 80003e44 <_ZN9Scheduler3putEP3PCB>
}
    800017a0:	fddff06f          	j	8000177c <_ZN3PCB8wakingUpEv+0x30>

00000000800017a4 <_ZN3PCB4dtorEPS_>:

void PCB::dtor(PCB *pcb) {
    if(pcb->stack) kfree((void *)pcb->stack);
    800017a4:	01853503          	ld	a0,24(a0)
    800017a8:	02050663          	beqz	a0,800017d4 <_ZN3PCB4dtorEPS_+0x30>
void PCB::dtor(PCB *pcb) {
    800017ac:	ff010113          	addi	sp,sp,-16
    800017b0:	00113423          	sd	ra,8(sp)
    800017b4:	00813023          	sd	s0,0(sp)
    800017b8:	01010413          	addi	s0,sp,16
    if(pcb->stack) kfree((void *)pcb->stack);
    800017bc:	00004097          	auipc	ra,0x4
    800017c0:	938080e7          	jalr	-1736(ra) # 800050f4 <_Z5kfreePKv>
}
    800017c4:	00813083          	ld	ra,8(sp)
    800017c8:	00013403          	ld	s0,0(sp)
    800017cc:	01010113          	addi	sp,sp,16
    800017d0:	00008067          	ret
    800017d4:	00008067          	ret

00000000800017d8 <_ZN5Buddy11clearMemoryEPvm>:
void *Buddy::START = 0;
void *Buddy::END = 0;
uint64 Buddy::highestN = 0;
uint64 Buddy::minN = 0;

void Buddy::clearMemory(void *address, size_t size){
    800017d8:	ff010113          	addi	sp,sp,-16
    800017dc:	00813423          	sd	s0,8(sp)
    800017e0:	01010413          	addi	s0,sp,16
    for(size_t ind = 0; ind < size; ind++){
    800017e4:	00000793          	li	a5,0
    800017e8:	00b7fa63          	bgeu	a5,a1,800017fc <_ZN5Buddy11clearMemoryEPvm+0x24>
        uint8 *memory = (uint8 *)((size_t)address + ind);
    800017ec:	00f50733          	add	a4,a0,a5
        *memory = 0;
    800017f0:	00070023          	sb	zero,0(a4)
    for(size_t ind = 0; ind < size; ind++){
    800017f4:	00178793          	addi	a5,a5,1
    800017f8:	ff1ff06f          	j	800017e8 <_ZN5Buddy11clearMemoryEPvm+0x10>
    }
}
    800017fc:	00813403          	ld	s0,8(sp)
    80001800:	01010113          	addi	sp,sp,16
    80001804:	00008067          	ret

0000000080001808 <_ZN5Buddy15free_block_initEPNS_16buddy_free_blockEPNS_17buddy_free_levelsEm>:

void Buddy::free_block_init(buddy_free_block *block, buddy_free_levels *level, uint64 position) { // Arguments maybe need two pointers -CHECK
    80001808:	ff010113          	addi	sp,sp,-16
    8000180c:	00813423          	sd	s0,8(sp)
    80001810:	01010413          	addi	s0,sp,16
    block->position = position;
    80001814:	00c53423          	sd	a2,8(a0)
    buddy_free_block *current;
    if(level->first == 0 || level->first->position >= position){
    80001818:	0005b783          	ld	a5,0(a1)
    8000181c:	00078663          	beqz	a5,80001828 <_ZN5Buddy15free_block_initEPNS_16buddy_free_blockEPNS_17buddy_free_levelsEm+0x20>
    80001820:	0087b703          	ld	a4,8(a5)
    80001824:	00c76c63          	bltu	a4,a2,8000183c <_ZN5Buddy15free_block_initEPNS_16buddy_free_blockEPNS_17buddy_free_levelsEm+0x34>
        block->next = level->first;
    80001828:	00f53023          	sd	a5,0(a0)
        level->first = block;
    8000182c:	00a5b023          	sd	a0,0(a1)
            current = current->next;
        }
        block->next = current->next;
        current->next = block;
    }
}
    80001830:	00813403          	ld	s0,8(sp)
    80001834:	01010113          	addi	sp,sp,16
    80001838:	00008067          	ret
        while(current->next != 0 && current->next->position < position){
    8000183c:	00078693          	mv	a3,a5
    80001840:	0007b783          	ld	a5,0(a5)
    80001844:	00078663          	beqz	a5,80001850 <_ZN5Buddy15free_block_initEPNS_16buddy_free_blockEPNS_17buddy_free_levelsEm+0x48>
    80001848:	0087b703          	ld	a4,8(a5)
    8000184c:	fec768e3          	bltu	a4,a2,8000183c <_ZN5Buddy15free_block_initEPNS_16buddy_free_blockEPNS_17buddy_free_levelsEm+0x34>
        block->next = current->next;
    80001850:	00f53023          	sd	a5,0(a0)
        current->next = block;
    80001854:	00a6b023          	sd	a0,0(a3)
}
    80001858:	fd9ff06f          	j	80001830 <_ZN5Buddy15free_block_initEPNS_16buddy_free_blockEPNS_17buddy_free_levelsEm+0x28>

000000008000185c <_ZN5Buddy21check_size_validationEm>:

int Buddy::check_size_validation(uint64 n) {
    8000185c:	ff010113          	addi	sp,sp,-16
    80001860:	00813423          	sd	s0,8(sp)
    80001864:	01010413          	addi	s0,sp,16
    if(n > highestN) return 0;
    80001868:	00009797          	auipc	a5,0x9
    8000186c:	8387b783          	ld	a5,-1992(a5) # 8000a0a0 <_ZN5Buddy8highestNE>
    80001870:	00a7ea63          	bltu	a5,a0,80001884 <_ZN5Buddy21check_size_validationEm+0x28>
    return 1;
    80001874:	00100513          	li	a0,1
}
    80001878:	00813403          	ld	s0,8(sp)
    8000187c:	01010113          	addi	sp,sp,16
    80001880:	00008067          	ret
    if(n > highestN) return 0;
    80001884:	00000513          	li	a0,0
    80001888:	ff1ff06f          	j	80001878 <_ZN5Buddy21check_size_validationEm+0x1c>

000000008000188c <_ZN5Buddy19calculate_real_sizeEm>:

uint64 Buddy::calculate_real_size(size_t size) {
    8000188c:	ff010113          	addi	sp,sp,-16
    80001890:	00813423          	sd	s0,8(sp)
    80001894:	01010413          	addi	s0,sp,16
    return ((size/BLOCK_SIZE)*BLOCK_SIZE + BLOCK_SIZE);
    80001898:	fffff7b7          	lui	a5,0xfffff
    8000189c:	00f57533          	and	a0,a0,a5
}
    800018a0:	000017b7          	lui	a5,0x1
    800018a4:	00f50533          	add	a0,a0,a5
    800018a8:	00813403          	ld	s0,8(sp)
    800018ac:	01010113          	addi	sp,sp,16
    800018b0:	00008067          	ret

00000000800018b4 <_ZN5Buddy18calculate_exponentEm>:

uint64 Buddy::calculate_exponent(uint64 size) {
    800018b4:	ff010113          	addi	sp,sp,-16
    800018b8:	00813423          	sd	s0,8(sp)
    800018bc:	01010413          	addi	s0,sp,16
    800018c0:	00050713          	mv	a4,a0
    uint64 res = 0;
    for(uint64 i = 1; ; i++){
    800018c4:	00100513          	li	a0,1
        res = i;
        if((uint64)1<<i >= size) break;
    800018c8:	00100793          	li	a5,1
    800018cc:	00a797b3          	sll	a5,a5,a0
    800018d0:	00e7f663          	bgeu	a5,a4,800018dc <_ZN5Buddy18calculate_exponentEm+0x28>
    for(uint64 i = 1; ; i++){
    800018d4:	00150513          	addi	a0,a0,1
        res = i;
    800018d8:	ff1ff06f          	j	800018c8 <_ZN5Buddy18calculate_exponentEm+0x14>
    }
    return res;
}
    800018dc:	00813403          	ld	s0,8(sp)
    800018e0:	01010113          	addi	sp,sp,16
    800018e4:	00008067          	ret

00000000800018e8 <_ZN5Buddy13init_highestNEv>:

uint64 Buddy::init_highestN() {
    800018e8:	ff010113          	addi	sp,sp,-16
    800018ec:	00813423          	sd	s0,8(sp)
    800018f0:	01010413          	addi	s0,sp,16
    uint64 prev = 0;
    size_t kernelSize = (size_t)((uint64)END - (uint64)START);
    800018f4:	00008797          	auipc	a5,0x8
    800018f8:	7ac78793          	addi	a5,a5,1964 # 8000a0a0 <_ZN5Buddy8highestNE>
    800018fc:	0087b683          	ld	a3,8(a5)
    80001900:	0107b783          	ld	a5,16(a5)
    80001904:	40f686b3          	sub	a3,a3,a5
    for(uint64 i = 1; ; i++){
    80001908:	00100713          	li	a4,1
    uint64 prev = 0;
    8000190c:	00000513          	li	a0,0
        if((size_t)1<<i >= kernelSize) break;
    80001910:	00100793          	li	a5,1
    80001914:	00e797b3          	sll	a5,a5,a4
    80001918:	00d7f863          	bgeu	a5,a3,80001928 <_ZN5Buddy13init_highestNEv+0x40>
        prev = i;
    8000191c:	00070513          	mv	a0,a4
    for(uint64 i = 1; ; i++){
    80001920:	00170713          	addi	a4,a4,1
        if((size_t)1<<i >= kernelSize) break;
    80001924:	fedff06f          	j	80001910 <_ZN5Buddy13init_highestNEv+0x28>
    }
    return prev;
}
    80001928:	00813403          	ld	s0,8(sp)
    8000192c:	01010113          	addi	sp,sp,16
    80001930:	00008067          	ret

0000000080001934 <_ZN5Buddy10buddy_initEPvS0_>:

int Buddy::buddy_init(void *start_adr, void *end_adr) {
    80001934:	fe010113          	addi	sp,sp,-32
    80001938:	00113c23          	sd	ra,24(sp)
    8000193c:	00813823          	sd	s0,16(sp)
    80001940:	00913423          	sd	s1,8(sp)
    80001944:	01213023          	sd	s2,0(sp)
    80001948:	02010413          	addi	s0,sp,32
    8000194c:	00050913          	mv	s2,a0
    head = nullptr;
    80001950:	00008497          	auipc	s1,0x8
    80001954:	75048493          	addi	s1,s1,1872 # 8000a0a0 <_ZN5Buddy8highestNE>
    80001958:	0004bc23          	sd	zero,24(s1)
    START = start_adr;
    8000195c:	00a4b823          	sd	a0,16(s1)
    END = end_adr;
    80001960:	00b4b423          	sd	a1,8(s1)
    highestN = init_highestN();
    80001964:	00000097          	auipc	ra,0x0
    80001968:	f84080e7          	jalr	-124(ra) # 800018e8 <_ZN5Buddy13init_highestNEv>
    8000196c:	00a4b023          	sd	a0,0(s1)

    minN = 5; // HARD_CODE - SHOULD BE CHANGED IN FUTURE
    80001970:	00500793          	li	a5,5
    80001974:	02f4b023          	sd	a5,32(s1)

    //allocate first buddy_free_level and first buddy_free_block and change START address
    head = (buddy_free_levels *)START;
    80001978:	0124bc23          	sd	s2,24(s1)
    head->first = nullptr;
    8000197c:	00093023          	sd	zero,0(s2)
    head->level = highestN;
    80001980:	0184b683          	ld	a3,24(s1)
    80001984:	0004b783          	ld	a5,0(s1)
    80001988:	00f6b423          	sd	a5,8(a3)
    START = (void *)( (uint64)START + (highestN - minN + 1)*sizeof(buddy_free_levels));
    8000198c:	0204b703          	ld	a4,32(s1)
    80001990:	40e787b3          	sub	a5,a5,a4
    80001994:	00178793          	addi	a5,a5,1
    80001998:	00579793          	slli	a5,a5,0x5
    8000199c:	0104b703          	ld	a4,16(s1)
    800019a0:	00f707b3          	add	a5,a4,a5
    800019a4:	00f4b823          	sd	a5,16(s1)
    head->prev = nullptr;
    800019a8:	0006bc23          	sd	zero,24(a3)
    //allocate rest of the levels
    for(uint64 i = 1; i < highestN - minN + 1; i++){
    800019ac:	00100693          	li	a3,1
    800019b0:	00008797          	auipc	a5,0x8
    800019b4:	6f078793          	addi	a5,a5,1776 # 8000a0a0 <_ZN5Buddy8highestNE>
    800019b8:	0007b703          	ld	a4,0(a5)
    800019bc:	0207b603          	ld	a2,32(a5)
    800019c0:	40c707b3          	sub	a5,a4,a2
    800019c4:	00178593          	addi	a1,a5,1
    800019c8:	04b6f463          	bgeu	a3,a1,80001a10 <_ZN5Buddy10buddy_initEPvS0_+0xdc>
        head[i].first = nullptr;
    800019cc:	00569713          	slli	a4,a3,0x5
    800019d0:	00008597          	auipc	a1,0x8
    800019d4:	6d058593          	addi	a1,a1,1744 # 8000a0a0 <_ZN5Buddy8highestNE>
    800019d8:	0185b783          	ld	a5,24(a1)
    800019dc:	00e787b3          	add	a5,a5,a4
    800019e0:	0007b023          	sd	zero,0(a5)
        head[i].level = highestN - i;
    800019e4:	0185b783          	ld	a5,24(a1)
    800019e8:	00e78633          	add	a2,a5,a4
    800019ec:	0005b583          	ld	a1,0(a1)
    800019f0:	40d585b3          	sub	a1,a1,a3
    800019f4:	00b63423          	sd	a1,8(a2)
        head[i-1].next = &head[i];
    800019f8:	fe070713          	addi	a4,a4,-32
    800019fc:	00e787b3          	add	a5,a5,a4
    80001a00:	00c7b823          	sd	a2,16(a5)
        head[i].prev = &head[i-1];
    80001a04:	00f63c23          	sd	a5,24(a2)
    for(uint64 i = 1; i < highestN - minN + 1; i++){
    80001a08:	00168693          	addi	a3,a3,1
    80001a0c:	fa5ff06f          	j	800019b0 <_ZN5Buddy10buddy_initEPvS0_+0x7c>
    }
    head[highestN-minN].next = nullptr;
    80001a10:	00008697          	auipc	a3,0x8
    80001a14:	69068693          	addi	a3,a3,1680 # 8000a0a0 <_ZN5Buddy8highestNE>
    80001a18:	00579793          	slli	a5,a5,0x5
    80001a1c:	0186b583          	ld	a1,24(a3)
    80001a20:	00f587b3          	add	a5,a1,a5
    80001a24:	0007b823          	sd	zero,16(a5)


    //allocate array of allocated blocks
    uint64 numberOfElements = 1<<(highestN - minN);
    80001a28:	40c7073b          	subw	a4,a4,a2
    80001a2c:	00100593          	li	a1,1
    80001a30:	00e595bb          	sllw	a1,a1,a4
    allocatedHead = (buddy_allocated_blocks *)START;
    80001a34:	0106b703          	ld	a4,16(a3)
    80001a38:	02e6b423          	sd	a4,40(a3)
    START = (void *)((uint64)START + (numberOfElements + 1) * sizeof(buddy_allocated_blocks));
    80001a3c:	00158793          	addi	a5,a1,1
    80001a40:	00479793          	slli	a5,a5,0x4
    80001a44:	00f707b3          	add	a5,a4,a5
    80001a48:	00f6b823          	sd	a5,16(a3)
    allocatedHead->size = 0;
    80001a4c:	00072023          	sw	zero,0(a4)
    allocatedHead->address = 0;
    80001a50:	0286b783          	ld	a5,40(a3)
    80001a54:	0007b423          	sd	zero,8(a5)
    for(uint64 i = 1; i < numberOfElements; i++){
    80001a58:	00100793          	li	a5,1
    80001a5c:	02b7f863          	bgeu	a5,a1,80001a8c <_ZN5Buddy10buddy_initEPvS0_+0x158>
        allocatedHead[i].size = 0;
    80001a60:	00479613          	slli	a2,a5,0x4
    80001a64:	00008717          	auipc	a4,0x8
    80001a68:	63c70713          	addi	a4,a4,1596 # 8000a0a0 <_ZN5Buddy8highestNE>
    80001a6c:	02873683          	ld	a3,40(a4)
    80001a70:	00c686b3          	add	a3,a3,a2
    80001a74:	0006a023          	sw	zero,0(a3)
        allocatedHead[i].address = 0;
    80001a78:	02873703          	ld	a4,40(a4)
    80001a7c:	00c70733          	add	a4,a4,a2
    80001a80:	00073423          	sd	zero,8(a4)
    for(uint64 i = 1; i < numberOfElements; i++){
    80001a84:	00178793          	addi	a5,a5,1
    80001a88:	fd5ff06f          	j	80001a5c <_ZN5Buddy10buddy_initEPvS0_+0x128>
    }

    head->first = (buddy_free_block *)((uint64)START);
    80001a8c:	00008797          	auipc	a5,0x8
    80001a90:	61478793          	addi	a5,a5,1556 # 8000a0a0 <_ZN5Buddy8highestNE>
    80001a94:	0187b703          	ld	a4,24(a5)
    80001a98:	0107b683          	ld	a3,16(a5)
    80001a9c:	00d73023          	sd	a3,0(a4)
    head->first->next = nullptr;
    80001aa0:	0187b703          	ld	a4,24(a5)
    80001aa4:	00073703          	ld	a4,0(a4)
    80001aa8:	00073023          	sd	zero,0(a4)
    head->first->position = 1;
    80001aac:	0187b783          	ld	a5,24(a5)
    80001ab0:	0007b783          	ld	a5,0(a5)
    80001ab4:	00100713          	li	a4,1
    80001ab8:	00e7b423          	sd	a4,8(a5)
    return 0;
}
    80001abc:	00000513          	li	a0,0
    80001ac0:	01813083          	ld	ra,24(sp)
    80001ac4:	01013403          	ld	s0,16(sp)
    80001ac8:	00813483          	ld	s1,8(sp)
    80001acc:	00013903          	ld	s2,0(sp)
    80001ad0:	02010113          	addi	sp,sp,32
    80001ad4:	00008067          	ret

0000000080001ad8 <_ZN5Buddy11findBlockAtEPNS_17buddy_free_levelsEm>:

Buddy::buddy_free_block* Buddy::findBlockAt(Buddy::buddy_free_levels *level,uint64 pos){
    80001ad8:	ff010113          	addi	sp,sp,-16
    80001adc:	00813423          	sd	s0,8(sp)
    80001ae0:	01010413          	addi	s0,sp,16
    buddy_free_block *curr = level->first;
    80001ae4:	00053503          	ld	a0,0(a0)
    while(curr != 0){
    80001ae8:	00050a63          	beqz	a0,80001afc <_ZN5Buddy11findBlockAtEPNS_17buddy_free_levelsEm+0x24>
        if(curr->position == pos) return curr;
    80001aec:	00853783          	ld	a5,8(a0)
    80001af0:	00b78663          	beq	a5,a1,80001afc <_ZN5Buddy11findBlockAtEPNS_17buddy_free_levelsEm+0x24>
        curr = curr->next;
    80001af4:	00053503          	ld	a0,0(a0)
    while(curr != 0){
    80001af8:	ff1ff06f          	j	80001ae8 <_ZN5Buddy11findBlockAtEPNS_17buddy_free_levelsEm+0x10>
    }
    return 0;
}
    80001afc:	00813403          	ld	s0,8(sp)
    80001b00:	01010113          	addi	sp,sp,16
    80001b04:	00008067          	ret

0000000080001b08 <_ZN5Buddy11deleteBlockEPNS_17buddy_free_levelsEm>:

void Buddy::deleteBlock(buddy_free_levels *level, uint64 pos) {
    80001b08:	ff010113          	addi	sp,sp,-16
    80001b0c:	00813423          	sd	s0,8(sp)
    80001b10:	01010413          	addi	s0,sp,16
    buddy_free_block *tmp;
    buddy_free_block *prev;
    tmp = level->first;
    80001b14:	00053603          	ld	a2,0(a0)
    prev = level->first;
    80001b18:	00060693          	mv	a3,a2
    tmp = level->first;
    80001b1c:	00060793          	mv	a5,a2
    while (tmp->position != pos) {
    80001b20:	0087b703          	ld	a4,8(a5)
    80001b24:	00b70863          	beq	a4,a1,80001b34 <_ZN5Buddy11deleteBlockEPNS_17buddy_free_levelsEm+0x2c>
        prev = tmp;
    80001b28:	00078693          	mv	a3,a5
        tmp = tmp->next;
    80001b2c:	0007b783          	ld	a5,0(a5)
    while (tmp->position != pos) {
    80001b30:	ff1ff06f          	j	80001b20 <_ZN5Buddy11deleteBlockEPNS_17buddy_free_levelsEm+0x18>
    }
    //if (tmp == 0) return; always null

    if (tmp == level->first) {
    80001b34:	02c78063          	beq	a5,a2,80001b54 <_ZN5Buddy11deleteBlockEPNS_17buddy_free_levelsEm+0x4c>
        level->first = level->first->next;
        d->position = 0;
        d->next = 0;
    } else {
        buddy_free_block *d = tmp;
        prev->next = tmp->next;
    80001b38:	0007b703          	ld	a4,0(a5)
    80001b3c:	00e6b023          	sd	a4,0(a3)
        d->next = 0;
    80001b40:	0007b023          	sd	zero,0(a5)
        d->position = 0;
    80001b44:	0007b423          	sd	zero,8(a5)
    }
}
    80001b48:	00813403          	ld	s0,8(sp)
    80001b4c:	01010113          	addi	sp,sp,16
    80001b50:	00008067          	ret
        level->first = level->first->next;
    80001b54:	00063783          	ld	a5,0(a2)
    80001b58:	00f53023          	sd	a5,0(a0)
        d->position = 0;
    80001b5c:	00063423          	sd	zero,8(a2)
        d->next = 0;
    80001b60:	00063023          	sd	zero,0(a2)
    80001b64:	fe5ff06f          	j	80001b48 <_ZN5Buddy11deleteBlockEPNS_17buddy_free_levelsEm+0x40>

0000000080001b68 <_ZN5Buddy14buddy_allocateEm>:

void *Buddy::buddy_allocate(size_t size) {
    80001b68:	fd010113          	addi	sp,sp,-48
    80001b6c:	02113423          	sd	ra,40(sp)
    80001b70:	02813023          	sd	s0,32(sp)
    80001b74:	00913c23          	sd	s1,24(sp)
    80001b78:	01213823          	sd	s2,16(sp)
    80001b7c:	01313423          	sd	s3,8(sp)
    80001b80:	01413023          	sd	s4,0(sp)
    80001b84:	03010413          	addi	s0,sp,48
    uint64 realSize = calculate_real_size(size);
    80001b88:	00000097          	auipc	ra,0x0
    80001b8c:	d04080e7          	jalr	-764(ra) # 8000188c <_ZN5Buddy19calculate_real_sizeEm>
    80001b90:	00050993          	mv	s3,a0

    //Calculate exponent
    uint64 n = calculate_exponent(realSize);
    80001b94:	00000097          	auipc	ra,0x0
    80001b98:	d20080e7          	jalr	-736(ra) # 800018b4 <_ZN5Buddy18calculate_exponentEm>
    n = (n < minN ? minN : n);
    80001b9c:	00008a17          	auipc	s4,0x8
    80001ba0:	524a3a03          	ld	s4,1316(s4) # 8000a0c0 <_ZN5Buddy4minNE>
    80001ba4:	01456463          	bltu	a0,s4,80001bac <_ZN5Buddy14buddy_allocateEm+0x44>
    80001ba8:	00050a13          	mv	s4,a0

    int check = check_size_validation(n);
    80001bac:	000a0513          	mv	a0,s4
    80001bb0:	00000097          	auipc	ra,0x0
    80001bb4:	cac080e7          	jalr	-852(ra) # 8000185c <_ZN5Buddy21check_size_validationEm>
    if(check == 0) return nullptr;
    80001bb8:	18050263          	beqz	a0,80001d3c <_ZN5Buddy14buddy_allocateEm+0x1d4>

    //find first level that has enough space
    buddy_free_levels *level = &head[highestN - n];
    80001bbc:	00008797          	auipc	a5,0x8
    80001bc0:	4e478793          	addi	a5,a5,1252 # 8000a0a0 <_ZN5Buddy8highestNE>
    80001bc4:	0187b483          	ld	s1,24(a5)
    80001bc8:	0007b783          	ld	a5,0(a5)
    80001bcc:	414787b3          	sub	a5,a5,s4
    80001bd0:	00579793          	slli	a5,a5,0x5
    80001bd4:	00f484b3          	add	s1,s1,a5
    if(level->first != 0){
    80001bd8:	0004b903          	ld	s2,0(s1)
    80001bdc:	00091c63          	bnez	s2,80001bf4 <_ZN5Buddy14buddy_allocateEm+0x8c>
        }

        return (void *)block;
    }else{
        //find first highest level that have free space
        while(level->first == 0){ //&& level->prev != 0){
    80001be0:	0004b783          	ld	a5,0(s1)
    80001be4:	08079a63          	bnez	a5,80001c78 <_ZN5Buddy14buddy_allocateEm+0x110>
            level = level->prev;
    80001be8:	0184b483          	ld	s1,24(s1)
            if(level == nullptr) return nullptr; //no free space
    80001bec:	fe049ae3          	bnez	s1,80001be0 <_ZN5Buddy14buddy_allocateEm+0x78>
    80001bf0:	0640006f          	j	80001c54 <_ZN5Buddy14buddy_allocateEm+0xec>
        deleteBlock(level, block->position);
    80001bf4:	00893583          	ld	a1,8(s2)
    80001bf8:	00048513          	mv	a0,s1
    80001bfc:	00000097          	auipc	ra,0x0
    80001c00:	f0c080e7          	jalr	-244(ra) # 80001b08 <_ZN5Buddy11deleteBlockEPNS_17buddy_free_levelsEm>
        for(i = 0; i < (uint64)(1 << (highestN - minN)); i++){
    80001c04:	00000693          	li	a3,0
    80001c08:	00008717          	auipc	a4,0x8
    80001c0c:	49870713          	addi	a4,a4,1176 # 8000a0a0 <_ZN5Buddy8highestNE>
    80001c10:	00073783          	ld	a5,0(a4)
    80001c14:	02073703          	ld	a4,32(a4)
    80001c18:	40e7873b          	subw	a4,a5,a4
    80001c1c:	00100793          	li	a5,1
    80001c20:	00e797bb          	sllw	a5,a5,a4
    80001c24:	02f6f663          	bgeu	a3,a5,80001c50 <_ZN5Buddy14buddy_allocateEm+0xe8>
            if(allocatedHead[i].size == 0){
    80001c28:	00469793          	slli	a5,a3,0x4
    80001c2c:	00008717          	auipc	a4,0x8
    80001c30:	49c73703          	ld	a4,1180(a4) # 8000a0c8 <_ZN5Buddy13allocatedHeadE>
    80001c34:	00f707b3          	add	a5,a4,a5
    80001c38:	0007a703          	lw	a4,0(a5)
    80001c3c:	00070663          	beqz	a4,80001c48 <_ZN5Buddy14buddy_allocateEm+0xe0>
        for(i = 0; i < (uint64)(1 << (highestN - minN)); i++){
    80001c40:	00168693          	addi	a3,a3,1
    80001c44:	fc5ff06f          	j	80001c08 <_ZN5Buddy14buddy_allocateEm+0xa0>
                allocatedHead[i].address = (void *)block;
    80001c48:	0127b423          	sd	s2,8(a5)
                allocatedHead[i].size = realSize;
    80001c4c:	0137a023          	sw	s3,0(a5)
        return (void *)block;
    80001c50:	00090493          	mv	s1,s2

        return (void*)res;
    }

    return nullptr;
}
    80001c54:	00048513          	mv	a0,s1
    80001c58:	02813083          	ld	ra,40(sp)
    80001c5c:	02013403          	ld	s0,32(sp)
    80001c60:	01813483          	ld	s1,24(sp)
    80001c64:	01013903          	ld	s2,16(sp)
    80001c68:	00813983          	ld	s3,8(sp)
    80001c6c:	00013a03          	ld	s4,0(sp)
    80001c70:	03010113          	addi	sp,sp,48
    80001c74:	00008067          	ret
        uint64 l = level->level;
    80001c78:	0084b783          	ld	a5,8(s1)
        while(l != n){
    80001c7c:	05478e63          	beq	a5,s4,80001cd8 <_ZN5Buddy14buddy_allocateEm+0x170>
            buddy_free_block *block = level->first;
    80001c80:	0004b903          	ld	s2,0(s1)
            level->first = block->next;
    80001c84:	00093703          	ld	a4,0(s2)
    80001c88:	00e4b023          	sd	a4,0(s1)
            newBlockSecond = (buddy_free_block *)((uint64)((void*)block) + (uint64)(1 << (l-1)));
    80001c8c:	fff7879b          	addiw	a5,a5,-1
    80001c90:	00100513          	li	a0,1
    80001c94:	00f5153b          	sllw	a0,a0,a5
            free_block_init(newBlockSecond, level->next, block->position*2);
    80001c98:	00893603          	ld	a2,8(s2)
    80001c9c:	00161613          	slli	a2,a2,0x1
    80001ca0:	0104b583          	ld	a1,16(s1)
    80001ca4:	00a90533          	add	a0,s2,a0
    80001ca8:	00000097          	auipc	ra,0x0
    80001cac:	b60080e7          	jalr	-1184(ra) # 80001808 <_ZN5Buddy15free_block_initEPNS_16buddy_free_blockEPNS_17buddy_free_levelsEm>
            free_block_init(newBlockFirst, level->next, block->position*2-1);
    80001cb0:	00893603          	ld	a2,8(s2)
    80001cb4:	00161613          	slli	a2,a2,0x1
    80001cb8:	fff60613          	addi	a2,a2,-1
    80001cbc:	0104b583          	ld	a1,16(s1)
    80001cc0:	00090513          	mv	a0,s2
    80001cc4:	00000097          	auipc	ra,0x0
    80001cc8:	b44080e7          	jalr	-1212(ra) # 80001808 <_ZN5Buddy15free_block_initEPNS_16buddy_free_blockEPNS_17buddy_free_levelsEm>
            level = level->next;
    80001ccc:	0104b483          	ld	s1,16(s1)
            l = level->level;
    80001cd0:	0084b783          	ld	a5,8(s1)
        while(l != n){
    80001cd4:	fa9ff06f          	j	80001c7c <_ZN5Buddy14buddy_allocateEm+0x114>
        deleteBlock(level, tmp->position);
    80001cd8:	00893583          	ld	a1,8(s2)
    80001cdc:	00048513          	mv	a0,s1
    80001ce0:	00000097          	auipc	ra,0x0
    80001ce4:	e28080e7          	jalr	-472(ra) # 80001b08 <_ZN5Buddy11deleteBlockEPNS_17buddy_free_levelsEm>
        for(i = 0; i < (uint64)(1 << (highestN - minN)); i++){
    80001ce8:	00000693          	li	a3,0
    80001cec:	00008717          	auipc	a4,0x8
    80001cf0:	3b470713          	addi	a4,a4,948 # 8000a0a0 <_ZN5Buddy8highestNE>
    80001cf4:	00073783          	ld	a5,0(a4)
    80001cf8:	02073703          	ld	a4,32(a4)
    80001cfc:	40e7873b          	subw	a4,a5,a4
    80001d00:	00100793          	li	a5,1
    80001d04:	00e797bb          	sllw	a5,a5,a4
    80001d08:	02f6f663          	bgeu	a3,a5,80001d34 <_ZN5Buddy14buddy_allocateEm+0x1cc>
            if(allocatedHead[i].size == 0){
    80001d0c:	00469793          	slli	a5,a3,0x4
    80001d10:	00008717          	auipc	a4,0x8
    80001d14:	3b873703          	ld	a4,952(a4) # 8000a0c8 <_ZN5Buddy13allocatedHeadE>
    80001d18:	00f707b3          	add	a5,a4,a5
    80001d1c:	0007a703          	lw	a4,0(a5)
    80001d20:	00070663          	beqz	a4,80001d2c <_ZN5Buddy14buddy_allocateEm+0x1c4>
        for(i = 0; i < (uint64)(1 << (highestN - minN)); i++){
    80001d24:	00168693          	addi	a3,a3,1
    80001d28:	fc5ff06f          	j	80001cec <_ZN5Buddy14buddy_allocateEm+0x184>
                allocatedHead[i].address = (void *)res;
    80001d2c:	0127b423          	sd	s2,8(a5)
                allocatedHead[i].size = realSize;
    80001d30:	0137a023          	sw	s3,0(a5)
        return (void*)res;
    80001d34:	00090493          	mv	s1,s2
    80001d38:	f1dff06f          	j	80001c54 <_ZN5Buddy14buddy_allocateEm+0xec>
    if(check == 0) return nullptr;
    80001d3c:	00000493          	li	s1,0
    80001d40:	f15ff06f          	j	80001c54 <_ZN5Buddy14buddy_allocateEm+0xec>

0000000080001d44 <_ZN5Buddy10buddy_freeEPv>:

void Buddy::buddy_free(void *address) {
    80001d44:	fc010113          	addi	sp,sp,-64
    80001d48:	02113c23          	sd	ra,56(sp)
    80001d4c:	02813823          	sd	s0,48(sp)
    80001d50:	02913423          	sd	s1,40(sp)
    80001d54:	03213023          	sd	s2,32(sp)
    80001d58:	01313c23          	sd	s3,24(sp)
    80001d5c:	01413823          	sd	s4,16(sp)
    80001d60:	01513423          	sd	s5,8(sp)
    80001d64:	04010413          	addi	s0,sp,64
    80001d68:	00050a13          	mv	s4,a0
    //find address in allocated_blocks structure
    buddy_allocated_blocks *block_to_free = 0;

    for(uint64 i = 0; i < (uint64)(1<<(highestN-minN)); i++){
    80001d6c:	00000693          	li	a3,0
    80001d70:	00008717          	auipc	a4,0x8
    80001d74:	33070713          	addi	a4,a4,816 # 8000a0a0 <_ZN5Buddy8highestNE>
    80001d78:	00073783          	ld	a5,0(a4)
    80001d7c:	02073703          	ld	a4,32(a4)
    80001d80:	40e7873b          	subw	a4,a5,a4
    80001d84:	00100793          	li	a5,1
    80001d88:	00e797bb          	sllw	a5,a5,a4
    80001d8c:	02f6f263          	bgeu	a3,a5,80001db0 <_ZN5Buddy10buddy_freeEPv+0x6c>
        if(allocatedHead[i].address == address){
    80001d90:	00469793          	slli	a5,a3,0x4
    80001d94:	00008717          	auipc	a4,0x8
    80001d98:	33473703          	ld	a4,820(a4) # 8000a0c8 <_ZN5Buddy13allocatedHeadE>
    80001d9c:	00f707b3          	add	a5,a4,a5
    80001da0:	0087b703          	ld	a4,8(a5)
    80001da4:	01470863          	beq	a4,s4,80001db4 <_ZN5Buddy10buddy_freeEPv+0x70>
    for(uint64 i = 0; i < (uint64)(1<<(highestN-minN)); i++){
    80001da8:	00168693          	addi	a3,a3,1
    80001dac:	fc5ff06f          	j	80001d70 <_ZN5Buddy10buddy_freeEPv+0x2c>
    buddy_allocated_blocks *block_to_free = 0;
    80001db0:	00000793          	li	a5,0
            break;
        }
    }

    //save size and delete data from structure for allocated spaces
    size_t size = block_to_free->size;
    80001db4:	0007a983          	lw	s3,0(a5)
    block_to_free->address = 0;
    80001db8:	0007b423          	sd	zero,8(a5)
    block_to_free->size = 0;
    80001dbc:	0007a023          	sw	zero,0(a5)

    clearMemory(address, size);
    80001dc0:	00098593          	mv	a1,s3
    80001dc4:	000a0513          	mv	a0,s4
    80001dc8:	00000097          	auipc	ra,0x0
    80001dcc:	a10080e7          	jalr	-1520(ra) # 800017d8 <_ZN5Buddy11clearMemoryEPvm>

    //free block and if possible buddy him with his neighbour

    uint64 n = calculate_exponent(size);
    80001dd0:	00098513          	mv	a0,s3
    80001dd4:	00000097          	auipc	ra,0x0
    80001dd8:	ae0080e7          	jalr	-1312(ra) # 800018b4 <_ZN5Buddy18calculate_exponentEm>

    buddy_free_levels *level = &head[highestN - n];
    80001ddc:	00008717          	auipc	a4,0x8
    80001de0:	2c470713          	addi	a4,a4,708 # 8000a0a0 <_ZN5Buddy8highestNE>
    80001de4:	01873903          	ld	s2,24(a4)
    80001de8:	00073783          	ld	a5,0(a4)
    80001dec:	40a787b3          	sub	a5,a5,a0
    80001df0:	00579793          	slli	a5,a5,0x5
    80001df4:	00f90933          	add	s2,s2,a5

    uint64 position = uint64(((uint64)address - (uint64)START) / size);
    80001df8:	01073483          	ld	s1,16(a4)
    80001dfc:	409a04b3          	sub	s1,s4,s1
    80001e00:	0334d4b3          	divu	s1,s1,s3

    //create free block
    buddy_free_block *block = (buddy_free_block *) address;
    80001e04:	0140006f          	j	80001e18 <_ZN5Buddy10buddy_freeEPv+0xd4>

    while(level->prev != 0) {
        free_block_init(block, level, position);

        //find his buddy if there is
        uint64 par = ((uint64) (position & 1) == (uint64) 0 ? position - 1 : position + 1);
    80001e08:	00148a93          	addi	s5,s1,1
    80001e0c:	0340006f          	j	80001e40 <_ZN5Buddy10buddy_freeEPv+0xfc>
        level = level->prev;

        buddy_free_block *largerBlock = (buddy_free_block *) ((uint64) buddy < (uint64) block ? (void *) buddy
                                                                                              : (void *) block);

        position = (position + 1) / 2;
    80001e10:	00148493          	addi	s1,s1,1
    80001e14:	0014d493          	srli	s1,s1,0x1
    while(level->prev != 0) {
    80001e18:	01893783          	ld	a5,24(s2)
    80001e1c:	06078663          	beqz	a5,80001e88 <_ZN5Buddy10buddy_freeEPv+0x144>
        free_block_init(block, level, position);
    80001e20:	00048613          	mv	a2,s1
    80001e24:	00090593          	mv	a1,s2
    80001e28:	000a0513          	mv	a0,s4
    80001e2c:	00000097          	auipc	ra,0x0
    80001e30:	9dc080e7          	jalr	-1572(ra) # 80001808 <_ZN5Buddy15free_block_initEPNS_16buddy_free_blockEPNS_17buddy_free_levelsEm>
        uint64 par = ((uint64) (position & 1) == (uint64) 0 ? position - 1 : position + 1);
    80001e34:	0014f793          	andi	a5,s1,1
    80001e38:	fc0798e3          	bnez	a5,80001e08 <_ZN5Buddy10buddy_freeEPv+0xc4>
    80001e3c:	fff48a93          	addi	s5,s1,-1
        buddy_free_block *buddy = findBlockAt(level, par);
    80001e40:	000a8593          	mv	a1,s5
    80001e44:	00090513          	mv	a0,s2
    80001e48:	00000097          	auipc	ra,0x0
    80001e4c:	c90080e7          	jalr	-880(ra) # 80001ad8 <_ZN5Buddy11findBlockAtEPNS_17buddy_free_levelsEm>
    80001e50:	00050993          	mv	s3,a0
        if (buddy == 0) return;
    80001e54:	02050a63          	beqz	a0,80001e88 <_ZN5Buddy10buddy_freeEPv+0x144>
        deleteBlock(level, par);
    80001e58:	000a8593          	mv	a1,s5
    80001e5c:	00090513          	mv	a0,s2
    80001e60:	00000097          	auipc	ra,0x0
    80001e64:	ca8080e7          	jalr	-856(ra) # 80001b08 <_ZN5Buddy11deleteBlockEPNS_17buddy_free_levelsEm>
        deleteBlock(level, position);
    80001e68:	00048593          	mv	a1,s1
    80001e6c:	00090513          	mv	a0,s2
    80001e70:	00000097          	auipc	ra,0x0
    80001e74:	c98080e7          	jalr	-872(ra) # 80001b08 <_ZN5Buddy11deleteBlockEPNS_17buddy_free_levelsEm>
        level = level->prev;
    80001e78:	01893903          	ld	s2,24(s2)
        buddy_free_block *largerBlock = (buddy_free_block *) ((uint64) buddy < (uint64) block ? (void *) buddy
    80001e7c:	f949fae3          	bgeu	s3,s4,80001e10 <_ZN5Buddy10buddy_freeEPv+0xcc>
    80001e80:	00098a13          	mv	s4,s3
    80001e84:	f8dff06f          	j	80001e10 <_ZN5Buddy10buddy_freeEPv+0xcc>
        block = largerBlock;
    }
    return;
}
    80001e88:	03813083          	ld	ra,56(sp)
    80001e8c:	03013403          	ld	s0,48(sp)
    80001e90:	02813483          	ld	s1,40(sp)
    80001e94:	02013903          	ld	s2,32(sp)
    80001e98:	01813983          	ld	s3,24(sp)
    80001e9c:	01013a03          	ld	s4,16(sp)
    80001ea0:	00813a83          	ld	s5,8(sp)
    80001ea4:	04010113          	addi	sp,sp,64
    80001ea8:	00008067          	ret

0000000080001eac <_ZN8PCB_List14createPCB_ListEv>:
#include "../h/PCB_List.hpp"

kmem_cache_t *PCB_List::cache = nullptr;
kmem_cache_t *PCB_List::Elem::elemCache = nullptr;

PCB_List *PCB_List::createPCB_List(){
    80001eac:	ff010113          	addi	sp,sp,-16
    80001eb0:	00113423          	sd	ra,8(sp)
    80001eb4:	00813023          	sd	s0,0(sp)
    80001eb8:	01010413          	addi	s0,sp,16
    PCB_List *ret = (PCB_List *)kmem_cache_alloc(PCB_List::cache);
    80001ebc:	00008517          	auipc	a0,0x8
    80001ec0:	21453503          	ld	a0,532(a0) # 8000a0d0 <_ZN8PCB_List5cacheE>
    80001ec4:	00003097          	auipc	ra,0x3
    80001ec8:	258080e7          	jalr	600(ra) # 8000511c <_Z16kmem_cache_allocP10kmem_cache>
    if(ret == nullptr) return nullptr;
    80001ecc:	00050663          	beqz	a0,80001ed8 <_ZN8PCB_List14createPCB_ListEv+0x2c>
    ret->head = nullptr;
    80001ed0:	00053023          	sd	zero,0(a0)
    ret->tail = nullptr;
    80001ed4:	00053423          	sd	zero,8(a0)
    return ret;
}
    80001ed8:	00813083          	ld	ra,8(sp)
    80001edc:	00013403          	ld	s0,0(sp)
    80001ee0:	01010113          	addi	sp,sp,16
    80001ee4:	00008067          	ret

0000000080001ee8 <_ZN8PCB_List8addFirstEP3PCB>:

void PCB_List::addFirst(PCB *data)
{
    80001ee8:	fd010113          	addi	sp,sp,-48
    80001eec:	02113423          	sd	ra,40(sp)
    80001ef0:	02813023          	sd	s0,32(sp)
    80001ef4:	00913c23          	sd	s1,24(sp)
    80001ef8:	01213823          	sd	s2,16(sp)
    80001efc:	01313423          	sd	s3,8(sp)
    80001f00:	03010413          	addi	s0,sp,48
    80001f04:	00050493          	mv	s1,a0
    80001f08:	00058913          	mv	s2,a1
    //Elem *elem = new Elem(data, head);
    Elem *elem = Elem::createElem(data, head);
    80001f0c:	00053983          	ld	s3,0(a0)
        Elem *next;

        static kmem_cache_t *elemCache;

        static Elem* createElem(PCB* data, Elem *next){
            Elem* ret = (Elem *)kmem_cache_alloc(Elem::elemCache);
    80001f10:	00008517          	auipc	a0,0x8
    80001f14:	1c853503          	ld	a0,456(a0) # 8000a0d8 <_ZN8PCB_List4Elem9elemCacheE>
    80001f18:	00003097          	auipc	ra,0x3
    80001f1c:	204080e7          	jalr	516(ra) # 8000511c <_Z16kmem_cache_allocP10kmem_cache>
            if(ret == nullptr) return nullptr;
    80001f20:	00050663          	beqz	a0,80001f2c <_ZN8PCB_List8addFirstEP3PCB+0x44>
            ret->data = data;
    80001f24:	01253023          	sd	s2,0(a0)
            ret->next = next;
    80001f28:	01353423          	sd	s3,8(a0)
    head = elem;
    80001f2c:	00a4b023          	sd	a0,0(s1)
    if (!tail) { tail = head; }
    80001f30:	0084b783          	ld	a5,8(s1)
    80001f34:	02078063          	beqz	a5,80001f54 <_ZN8PCB_List8addFirstEP3PCB+0x6c>
}
    80001f38:	02813083          	ld	ra,40(sp)
    80001f3c:	02013403          	ld	s0,32(sp)
    80001f40:	01813483          	ld	s1,24(sp)
    80001f44:	01013903          	ld	s2,16(sp)
    80001f48:	00813983          	ld	s3,8(sp)
    80001f4c:	03010113          	addi	sp,sp,48
    80001f50:	00008067          	ret
    if (!tail) { tail = head; }
    80001f54:	00a4b423          	sd	a0,8(s1)
}
    80001f58:	fe1ff06f          	j	80001f38 <_ZN8PCB_List8addFirstEP3PCB+0x50>

0000000080001f5c <_ZN8PCB_List7addLastEP3PCB>:

int PCB_List::addLast(PCB *data)
{
    80001f5c:	fe010113          	addi	sp,sp,-32
    80001f60:	00113c23          	sd	ra,24(sp)
    80001f64:	00813823          	sd	s0,16(sp)
    80001f68:	00913423          	sd	s1,8(sp)
    80001f6c:	01213023          	sd	s2,0(sp)
    80001f70:	02010413          	addi	s0,sp,32
    80001f74:	00050493          	mv	s1,a0
    80001f78:	00058913          	mv	s2,a1
            Elem* ret = (Elem *)kmem_cache_alloc(Elem::elemCache);
    80001f7c:	00008517          	auipc	a0,0x8
    80001f80:	15c53503          	ld	a0,348(a0) # 8000a0d8 <_ZN8PCB_List4Elem9elemCacheE>
    80001f84:	00003097          	auipc	ra,0x3
    80001f88:	198080e7          	jalr	408(ra) # 8000511c <_Z16kmem_cache_allocP10kmem_cache>
            if(ret == nullptr) return nullptr;
    80001f8c:	04050463          	beqz	a0,80001fd4 <_ZN8PCB_List7addLastEP3PCB+0x78>
            ret->data = data;
    80001f90:	01253023          	sd	s2,0(a0)
            ret->next = next;
    80001f94:	00053423          	sd	zero,8(a0)
    //Elem *elem = new Elem(data, 0);
    Elem *elem = Elem::createElem(data, nullptr);
    if(!elem) return -1;
    if (tail)
    80001f98:	0084b783          	ld	a5,8(s1)
    80001f9c:	02078463          	beqz	a5,80001fc4 <_ZN8PCB_List7addLastEP3PCB+0x68>
    {
        tail->next = elem;
    80001fa0:	00a7b423          	sd	a0,8(a5)
        tail = elem;
    80001fa4:	00a4b423          	sd	a0,8(s1)
    } else
    {
        head = tail = elem;
    }
    return 0;
    80001fa8:	00000513          	li	a0,0
}
    80001fac:	01813083          	ld	ra,24(sp)
    80001fb0:	01013403          	ld	s0,16(sp)
    80001fb4:	00813483          	ld	s1,8(sp)
    80001fb8:	00013903          	ld	s2,0(sp)
    80001fbc:	02010113          	addi	sp,sp,32
    80001fc0:	00008067          	ret
        head = tail = elem;
    80001fc4:	00a4b423          	sd	a0,8(s1)
    80001fc8:	00a4b023          	sd	a0,0(s1)
    return 0;
    80001fcc:	00000513          	li	a0,0
    80001fd0:	fddff06f          	j	80001fac <_ZN8PCB_List7addLastEP3PCB+0x50>
    if(!elem) return -1;
    80001fd4:	fff00513          	li	a0,-1
    80001fd8:	fd5ff06f          	j	80001fac <_ZN8PCB_List7addLastEP3PCB+0x50>

0000000080001fdc <_ZN8PCB_List11removeFirstEv>:

PCB *PCB_List::removeFirst()
{
    80001fdc:	fe010113          	addi	sp,sp,-32
    80001fe0:	00113c23          	sd	ra,24(sp)
    80001fe4:	00813823          	sd	s0,16(sp)
    80001fe8:	00913423          	sd	s1,8(sp)
    80001fec:	02010413          	addi	s0,sp,32
    if (!head) { return 0; }
    80001ff0:	00053583          	ld	a1,0(a0)
    80001ff4:	04058463          	beqz	a1,8000203c <_ZN8PCB_List11removeFirstEv+0x60>

    Elem *elem = head;
    head = head->next;
    80001ff8:	0085b783          	ld	a5,8(a1)
    80001ffc:	00f53023          	sd	a5,0(a0)
    if (!head) { tail = 0; }
    80002000:	02078a63          	beqz	a5,80002034 <_ZN8PCB_List11removeFirstEv+0x58>

    PCB *ret = elem->data;
    80002004:	0005b483          	ld	s1,0(a1)

    elem->next = nullptr;
    80002008:	0005b423          	sd	zero,8(a1)
            return ret;
        }

        static void freeObject(Elem *obj) {
            kmem_cache_free(elemCache, (void *) obj);
    8000200c:	00008517          	auipc	a0,0x8
    80002010:	0cc53503          	ld	a0,204(a0) # 8000a0d8 <_ZN8PCB_List4Elem9elemCacheE>
    80002014:	00003097          	auipc	ra,0x3
    80002018:	130080e7          	jalr	304(ra) # 80005144 <_Z15kmem_cache_freeP10kmem_cachePv>
    Elem::freeObject(elem);

    return ret;
}
    8000201c:	00048513          	mv	a0,s1
    80002020:	01813083          	ld	ra,24(sp)
    80002024:	01013403          	ld	s0,16(sp)
    80002028:	00813483          	ld	s1,8(sp)
    8000202c:	02010113          	addi	sp,sp,32
    80002030:	00008067          	ret
    if (!head) { tail = 0; }
    80002034:	00053423          	sd	zero,8(a0)
    80002038:	fcdff06f          	j	80002004 <_ZN8PCB_List11removeFirstEv+0x28>
    if (!head) { return 0; }
    8000203c:	00058493          	mv	s1,a1
    80002040:	fddff06f          	j	8000201c <_ZN8PCB_List11removeFirstEv+0x40>

0000000080002044 <_ZN8PCB_List9peekFirstEv>:

PCB *PCB_List::peekFirst()
{
    80002044:	ff010113          	addi	sp,sp,-16
    80002048:	00813423          	sd	s0,8(sp)
    8000204c:	01010413          	addi	s0,sp,16
    if (!head) { return 0; }
    80002050:	00053503          	ld	a0,0(a0)
    80002054:	00050463          	beqz	a0,8000205c <_ZN8PCB_List9peekFirstEv+0x18>
    return head->data;
    80002058:	00053503          	ld	a0,0(a0)
}
    8000205c:	00813403          	ld	s0,8(sp)
    80002060:	01010113          	addi	sp,sp,16
    80002064:	00008067          	ret

0000000080002068 <_ZN8PCB_List10freeObjectEPS_>:

void PCB_List::freeObject(PCB_List *l) {
    80002068:	ff010113          	addi	sp,sp,-16
    8000206c:	00113423          	sd	ra,8(sp)
    80002070:	00813023          	sd	s0,0(sp)
    80002074:	01010413          	addi	s0,sp,16
    80002078:	00050593          	mv	a1,a0
    kmem_cache_free(PCB_List::cache, (void *)l);
    8000207c:	00008517          	auipc	a0,0x8
    80002080:	05453503          	ld	a0,84(a0) # 8000a0d0 <_ZN8PCB_List5cacheE>
    80002084:	00003097          	auipc	ra,0x3
    80002088:	0c0080e7          	jalr	192(ra) # 80005144 <_Z15kmem_cache_freeP10kmem_cachePv>
}
    8000208c:	00813083          	ld	ra,8(sp)
    80002090:	00013403          	ld	s0,0(sp)
    80002094:	01010113          	addi	sp,sp,16
    80002098:	00008067          	ret

000000008000209c <_ZN8PCB_List4dtorEPS_>:

void PCB_List::dtor(PCB_List *l) {
    8000209c:	fe010113          	addi	sp,sp,-32
    800020a0:	00113c23          	sd	ra,24(sp)
    800020a4:	00813823          	sd	s0,16(sp)
    800020a8:	00913423          	sd	s1,8(sp)
    800020ac:	02010413          	addi	s0,sp,32
    800020b0:	00050493          	mv	s1,a0
    while(!l->head){
    800020b4:	0004b783          	ld	a5,0(s1)
    800020b8:	00079a63          	bnez	a5,800020cc <_ZN8PCB_List4dtorEPS_+0x30>
        l->removeFirst();
    800020bc:	00048513          	mv	a0,s1
    800020c0:	00000097          	auipc	ra,0x0
    800020c4:	f1c080e7          	jalr	-228(ra) # 80001fdc <_ZN8PCB_List11removeFirstEv>
    while(!l->head){
    800020c8:	fedff06f          	j	800020b4 <_ZN8PCB_List4dtorEPS_+0x18>
    }
}
    800020cc:	01813083          	ld	ra,24(sp)
    800020d0:	01013403          	ld	s0,16(sp)
    800020d4:	00813483          	ld	s1,8(sp)
    800020d8:	02010113          	addi	sp,sp,32
    800020dc:	00008067          	ret

00000000800020e0 <_Z11printStringPKc>:

#define LOCK() while(copy_and_swap(lockPrint, 0, 1))
#define UNLOCK() while(copy_and_swap(lockPrint, 1, 0))

void printString(char const *string)
{
    800020e0:	fe010113          	addi	sp,sp,-32
    800020e4:	00113c23          	sd	ra,24(sp)
    800020e8:	00813823          	sd	s0,16(sp)
    800020ec:	00913423          	sd	s1,8(sp)
    800020f0:	02010413          	addi	s0,sp,32
    800020f4:	00050493          	mv	s1,a0
    LOCK();
    800020f8:	00100613          	li	a2,1
    800020fc:	00000593          	li	a1,0
    80002100:	00008517          	auipc	a0,0x8
    80002104:	fe050513          	addi	a0,a0,-32 # 8000a0e0 <lockPrint>
    80002108:	fffff097          	auipc	ra,0xfffff
    8000210c:	ef8080e7          	jalr	-264(ra) # 80001000 <copy_and_swap>
    80002110:	fe0514e3          	bnez	a0,800020f8 <_Z11printStringPKc+0x18>
    while (*string != '\0')
    80002114:	0004c503          	lbu	a0,0(s1)
    80002118:	00050a63          	beqz	a0,8000212c <_Z11printStringPKc+0x4c>
    {
        putc(*string);
    8000211c:	fffff097          	auipc	ra,0xfffff
    80002120:	274080e7          	jalr	628(ra) # 80001390 <_Z4putcc>
        string++;
    80002124:	00148493          	addi	s1,s1,1
    while (*string != '\0')
    80002128:	fedff06f          	j	80002114 <_Z11printStringPKc+0x34>
    }
    UNLOCK();
    8000212c:	00000613          	li	a2,0
    80002130:	00100593          	li	a1,1
    80002134:	00008517          	auipc	a0,0x8
    80002138:	fac50513          	addi	a0,a0,-84 # 8000a0e0 <lockPrint>
    8000213c:	fffff097          	auipc	ra,0xfffff
    80002140:	ec4080e7          	jalr	-316(ra) # 80001000 <copy_and_swap>
    80002144:	fe0514e3          	bnez	a0,8000212c <_Z11printStringPKc+0x4c>
}
    80002148:	01813083          	ld	ra,24(sp)
    8000214c:	01013403          	ld	s0,16(sp)
    80002150:	00813483          	ld	s1,8(sp)
    80002154:	02010113          	addi	sp,sp,32
    80002158:	00008067          	ret

000000008000215c <_Z9getStringPci>:

char* getString(char *buf, int max) {
    8000215c:	fd010113          	addi	sp,sp,-48
    80002160:	02113423          	sd	ra,40(sp)
    80002164:	02813023          	sd	s0,32(sp)
    80002168:	00913c23          	sd	s1,24(sp)
    8000216c:	01213823          	sd	s2,16(sp)
    80002170:	01313423          	sd	s3,8(sp)
    80002174:	01413023          	sd	s4,0(sp)
    80002178:	03010413          	addi	s0,sp,48
    8000217c:	00050993          	mv	s3,a0
    80002180:	00058a13          	mv	s4,a1
    LOCK();
    80002184:	00100613          	li	a2,1
    80002188:	00000593          	li	a1,0
    8000218c:	00008517          	auipc	a0,0x8
    80002190:	f5450513          	addi	a0,a0,-172 # 8000a0e0 <lockPrint>
    80002194:	fffff097          	auipc	ra,0xfffff
    80002198:	e6c080e7          	jalr	-404(ra) # 80001000 <copy_and_swap>
    8000219c:	fe0514e3          	bnez	a0,80002184 <_Z9getStringPci+0x28>
    int i, cc;
    char c;

    for(i=0; i+1 < max; ){
    800021a0:	00000913          	li	s2,0
    800021a4:	00090493          	mv	s1,s2
    800021a8:	0019091b          	addiw	s2,s2,1
    800021ac:	03495a63          	bge	s2,s4,800021e0 <_Z9getStringPci+0x84>
        cc = getc();
    800021b0:	fffff097          	auipc	ra,0xfffff
    800021b4:	1b4080e7          	jalr	436(ra) # 80001364 <_Z4getcv>
        if(cc < 1)
    800021b8:	02050463          	beqz	a0,800021e0 <_Z9getStringPci+0x84>
            break;
        c = cc;
        buf[i++] = c;
    800021bc:	009984b3          	add	s1,s3,s1
    800021c0:	00a48023          	sb	a0,0(s1)
        if(c == '\n' || c == '\r')
    800021c4:	00a00793          	li	a5,10
    800021c8:	00f50a63          	beq	a0,a5,800021dc <_Z9getStringPci+0x80>
    800021cc:	00d00793          	li	a5,13
    800021d0:	fcf51ae3          	bne	a0,a5,800021a4 <_Z9getStringPci+0x48>
        buf[i++] = c;
    800021d4:	00090493          	mv	s1,s2
    800021d8:	0080006f          	j	800021e0 <_Z9getStringPci+0x84>
    800021dc:	00090493          	mv	s1,s2
            break;
    }
    buf[i] = '\0';
    800021e0:	009984b3          	add	s1,s3,s1
    800021e4:	00048023          	sb	zero,0(s1)

    UNLOCK();
    800021e8:	00000613          	li	a2,0
    800021ec:	00100593          	li	a1,1
    800021f0:	00008517          	auipc	a0,0x8
    800021f4:	ef050513          	addi	a0,a0,-272 # 8000a0e0 <lockPrint>
    800021f8:	fffff097          	auipc	ra,0xfffff
    800021fc:	e08080e7          	jalr	-504(ra) # 80001000 <copy_and_swap>
    80002200:	fe0514e3          	bnez	a0,800021e8 <_Z9getStringPci+0x8c>
    return buf;
}
    80002204:	00098513          	mv	a0,s3
    80002208:	02813083          	ld	ra,40(sp)
    8000220c:	02013403          	ld	s0,32(sp)
    80002210:	01813483          	ld	s1,24(sp)
    80002214:	01013903          	ld	s2,16(sp)
    80002218:	00813983          	ld	s3,8(sp)
    8000221c:	00013a03          	ld	s4,0(sp)
    80002220:	03010113          	addi	sp,sp,48
    80002224:	00008067          	ret

0000000080002228 <_Z11stringToIntPKc>:

int stringToInt(const char *s) {
    80002228:	ff010113          	addi	sp,sp,-16
    8000222c:	00813423          	sd	s0,8(sp)
    80002230:	01010413          	addi	s0,sp,16
    80002234:	00050693          	mv	a3,a0
    int n;

    n = 0;
    80002238:	00000513          	li	a0,0
    while ('0' <= *s && *s <= '9')
    8000223c:	0006c603          	lbu	a2,0(a3)
    80002240:	fd06071b          	addiw	a4,a2,-48
    80002244:	0ff77713          	andi	a4,a4,255
    80002248:	00900793          	li	a5,9
    8000224c:	02e7e063          	bltu	a5,a4,8000226c <_Z11stringToIntPKc+0x44>
        n = n * 10 + *s++ - '0';
    80002250:	0025179b          	slliw	a5,a0,0x2
    80002254:	00a787bb          	addw	a5,a5,a0
    80002258:	0017979b          	slliw	a5,a5,0x1
    8000225c:	00168693          	addi	a3,a3,1
    80002260:	00c787bb          	addw	a5,a5,a2
    80002264:	fd07851b          	addiw	a0,a5,-48
    while ('0' <= *s && *s <= '9')
    80002268:	fd5ff06f          	j	8000223c <_Z11stringToIntPKc+0x14>
    return n;
}
    8000226c:	00813403          	ld	s0,8(sp)
    80002270:	01010113          	addi	sp,sp,16
    80002274:	00008067          	ret

0000000080002278 <_Z8printIntiii>:

char digits[] = "0123456789ABCDEF";

void printInt(int xx, int base, int sgn)
{
    80002278:	fc010113          	addi	sp,sp,-64
    8000227c:	02113c23          	sd	ra,56(sp)
    80002280:	02813823          	sd	s0,48(sp)
    80002284:	02913423          	sd	s1,40(sp)
    80002288:	03213023          	sd	s2,32(sp)
    8000228c:	01313c23          	sd	s3,24(sp)
    80002290:	04010413          	addi	s0,sp,64
    80002294:	00050493          	mv	s1,a0
    80002298:	00058913          	mv	s2,a1
    8000229c:	00060993          	mv	s3,a2
    LOCK();
    800022a0:	00100613          	li	a2,1
    800022a4:	00000593          	li	a1,0
    800022a8:	00008517          	auipc	a0,0x8
    800022ac:	e3850513          	addi	a0,a0,-456 # 8000a0e0 <lockPrint>
    800022b0:	fffff097          	auipc	ra,0xfffff
    800022b4:	d50080e7          	jalr	-688(ra) # 80001000 <copy_and_swap>
    800022b8:	fe0514e3          	bnez	a0,800022a0 <_Z8printIntiii+0x28>
    char buf[16];
    int i, neg;
    uint x;

    neg = 0;
    if(sgn && xx < 0){
    800022bc:	00098463          	beqz	s3,800022c4 <_Z8printIntiii+0x4c>
    800022c0:	0804c463          	bltz	s1,80002348 <_Z8printIntiii+0xd0>
        neg = 1;
        x = -xx;
    } else {
        x = xx;
    800022c4:	0004851b          	sext.w	a0,s1
    neg = 0;
    800022c8:	00000593          	li	a1,0
    }

    i = 0;
    800022cc:	00000493          	li	s1,0
    do{
        buf[i++] = digits[x % base];
    800022d0:	0009079b          	sext.w	a5,s2
    800022d4:	0325773b          	remuw	a4,a0,s2
    800022d8:	00048613          	mv	a2,s1
    800022dc:	0014849b          	addiw	s1,s1,1
    800022e0:	02071693          	slli	a3,a4,0x20
    800022e4:	0206d693          	srli	a3,a3,0x20
    800022e8:	00008717          	auipc	a4,0x8
    800022ec:	bc870713          	addi	a4,a4,-1080 # 80009eb0 <digits>
    800022f0:	00d70733          	add	a4,a4,a3
    800022f4:	00074683          	lbu	a3,0(a4)
    800022f8:	fd040713          	addi	a4,s0,-48
    800022fc:	00c70733          	add	a4,a4,a2
    80002300:	fed70823          	sb	a3,-16(a4)
    }while((x /= base) != 0);
    80002304:	0005071b          	sext.w	a4,a0
    80002308:	0325553b          	divuw	a0,a0,s2
    8000230c:	fcf772e3          	bgeu	a4,a5,800022d0 <_Z8printIntiii+0x58>
    if(neg)
    80002310:	00058c63          	beqz	a1,80002328 <_Z8printIntiii+0xb0>
        buf[i++] = '-';
    80002314:	fd040793          	addi	a5,s0,-48
    80002318:	009784b3          	add	s1,a5,s1
    8000231c:	02d00793          	li	a5,45
    80002320:	fef48823          	sb	a5,-16(s1)
    80002324:	0026049b          	addiw	s1,a2,2

    while(--i >= 0)
    80002328:	fff4849b          	addiw	s1,s1,-1
    8000232c:	0204c463          	bltz	s1,80002354 <_Z8printIntiii+0xdc>
        putc(buf[i]);
    80002330:	fd040793          	addi	a5,s0,-48
    80002334:	009787b3          	add	a5,a5,s1
    80002338:	ff07c503          	lbu	a0,-16(a5)
    8000233c:	fffff097          	auipc	ra,0xfffff
    80002340:	054080e7          	jalr	84(ra) # 80001390 <_Z4putcc>
    80002344:	fe5ff06f          	j	80002328 <_Z8printIntiii+0xb0>
        x = -xx;
    80002348:	4090053b          	negw	a0,s1
        neg = 1;
    8000234c:	00100593          	li	a1,1
        x = -xx;
    80002350:	f7dff06f          	j	800022cc <_Z8printIntiii+0x54>

    UNLOCK();
    80002354:	00000613          	li	a2,0
    80002358:	00100593          	li	a1,1
    8000235c:	00008517          	auipc	a0,0x8
    80002360:	d8450513          	addi	a0,a0,-636 # 8000a0e0 <lockPrint>
    80002364:	fffff097          	auipc	ra,0xfffff
    80002368:	c9c080e7          	jalr	-868(ra) # 80001000 <copy_and_swap>
    8000236c:	fe0514e3          	bnez	a0,80002354 <_Z8printIntiii+0xdc>
    80002370:	03813083          	ld	ra,56(sp)
    80002374:	03013403          	ld	s0,48(sp)
    80002378:	02813483          	ld	s1,40(sp)
    8000237c:	02013903          	ld	s2,32(sp)
    80002380:	01813983          	ld	s3,24(sp)
    80002384:	04010113          	addi	sp,sp,64
    80002388:	00008067          	ret

000000008000238c <_ZN5Queue11createQueueEv>:
#include "../h/Queue.hpp"
#include "../h/PCB_List.hpp"

kmem_cache_t *Queue::cache = nullptr;

Queue *Queue::createQueue() {
    8000238c:	fe010113          	addi	sp,sp,-32
    80002390:	00113c23          	sd	ra,24(sp)
    80002394:	00813823          	sd	s0,16(sp)
    80002398:	00913423          	sd	s1,8(sp)
    8000239c:	01213023          	sd	s2,0(sp)
    800023a0:	02010413          	addi	s0,sp,32
    Queue *ret = (Queue *) kmem_cache_alloc(Queue::cache);
    800023a4:	00008517          	auipc	a0,0x8
    800023a8:	d4453503          	ld	a0,-700(a0) # 8000a0e8 <_ZN5Queue5cacheE>
    800023ac:	00003097          	auipc	ra,0x3
    800023b0:	d70080e7          	jalr	-656(ra) # 8000511c <_Z16kmem_cache_allocP10kmem_cache>
    800023b4:	00050493          	mv	s1,a0
    if(ret == nullptr) return nullptr;
    800023b8:	00050e63          	beqz	a0,800023d4 <_ZN5Queue11createQueueEv+0x48>
    ret->size = 0;
    800023bc:	00052023          	sw	zero,0(a0)
    ret->queue = PCB_List::createPCB_List();
    800023c0:	00000097          	auipc	ra,0x0
    800023c4:	aec080e7          	jalr	-1300(ra) # 80001eac <_ZN8PCB_List14createPCB_ListEv>
    800023c8:	00050913          	mv	s2,a0
    800023cc:	00a4b423          	sd	a0,8(s1)
    if(ret->queue == nullptr){
    800023d0:	02050063          	beqz	a0,800023f0 <_ZN5Queue11createQueueEv+0x64>
        kmem_cache_free(Queue::cache, ret);
        return nullptr;
    }
    return ret;
}
    800023d4:	00048513          	mv	a0,s1
    800023d8:	01813083          	ld	ra,24(sp)
    800023dc:	01013403          	ld	s0,16(sp)
    800023e0:	00813483          	ld	s1,8(sp)
    800023e4:	00013903          	ld	s2,0(sp)
    800023e8:	02010113          	addi	sp,sp,32
    800023ec:	00008067          	ret
        kmem_cache_free(Queue::cache, ret);
    800023f0:	00048593          	mv	a1,s1
    800023f4:	00008517          	auipc	a0,0x8
    800023f8:	cf453503          	ld	a0,-780(a0) # 8000a0e8 <_ZN5Queue5cacheE>
    800023fc:	00003097          	auipc	ra,0x3
    80002400:	d48080e7          	jalr	-696(ra) # 80005144 <_Z15kmem_cache_freeP10kmem_cachePv>
        return nullptr;
    80002404:	00090493          	mv	s1,s2
    80002408:	fcdff06f          	j	800023d4 <_ZN5Queue11createQueueEv+0x48>

000000008000240c <_ZN5Queue3putEP3PCB>:

int Queue::put(PCB* pcb){
    8000240c:	fe010113          	addi	sp,sp,-32
    80002410:	00113c23          	sd	ra,24(sp)
    80002414:	00813823          	sd	s0,16(sp)
    80002418:	00913423          	sd	s1,8(sp)
    8000241c:	02010413          	addi	s0,sp,32
    80002420:	00050493          	mv	s1,a0
    int ret = queue->addLast(pcb);
    80002424:	00853503          	ld	a0,8(a0)
    80002428:	00000097          	auipc	ra,0x0
    8000242c:	b34080e7          	jalr	-1228(ra) # 80001f5c <_ZN8PCB_List7addLastEP3PCB>
    if(ret == -1)  return -1;
    80002430:	fff00793          	li	a5,-1
    80002434:	00f50863          	beq	a0,a5,80002444 <_ZN5Queue3putEP3PCB+0x38>
    size++;
    80002438:	0004a783          	lw	a5,0(s1)
    8000243c:	0017879b          	addiw	a5,a5,1
    80002440:	00f4a023          	sw	a5,0(s1)
    return ret;
}
    80002444:	01813083          	ld	ra,24(sp)
    80002448:	01013403          	ld	s0,16(sp)
    8000244c:	00813483          	ld	s1,8(sp)
    80002450:	02010113          	addi	sp,sp,32
    80002454:	00008067          	ret

0000000080002458 <_ZN5Queue3getEv>:

PCB *Queue::get(){
    80002458:	ff010113          	addi	sp,sp,-16
    8000245c:	00113423          	sd	ra,8(sp)
    80002460:	00813023          	sd	s0,0(sp)
    80002464:	01010413          	addi	s0,sp,16
    size--;
    80002468:	00052783          	lw	a5,0(a0)
    8000246c:	fff7879b          	addiw	a5,a5,-1
    80002470:	00f52023          	sw	a5,0(a0)
    return queue->removeFirst();
    80002474:	00853503          	ld	a0,8(a0)
    80002478:	00000097          	auipc	ra,0x0
    8000247c:	b64080e7          	jalr	-1180(ra) # 80001fdc <_ZN8PCB_List11removeFirstEv>
}
    80002480:	00813083          	ld	ra,8(sp)
    80002484:	00013403          	ld	s0,0(sp)
    80002488:	01010113          	addi	sp,sp,16
    8000248c:	00008067          	ret

0000000080002490 <_ZN5Queue10freeObjectEPS_>:

void Queue::freeObject(Queue *q) {
    80002490:	ff010113          	addi	sp,sp,-16
    80002494:	00113423          	sd	ra,8(sp)
    80002498:	00813023          	sd	s0,0(sp)
    8000249c:	01010413          	addi	s0,sp,16
    800024a0:	00050593          	mv	a1,a0
    kmem_cache_free(Queue::cache, (void *)q);
    800024a4:	00008517          	auipc	a0,0x8
    800024a8:	c4453503          	ld	a0,-956(a0) # 8000a0e8 <_ZN5Queue5cacheE>
    800024ac:	00003097          	auipc	ra,0x3
    800024b0:	c98080e7          	jalr	-872(ra) # 80005144 <_Z15kmem_cache_freeP10kmem_cachePv>
}
    800024b4:	00813083          	ld	ra,8(sp)
    800024b8:	00013403          	ld	s0,0(sp)
    800024bc:	01010113          	addi	sp,sp,16
    800024c0:	00008067          	ret

00000000800024c4 <_ZN5Queue4dtorEPS_>:

void Queue::dtor(Queue *q) {
    800024c4:	ff010113          	addi	sp,sp,-16
    800024c8:	00113423          	sd	ra,8(sp)
    800024cc:	00813023          	sd	s0,0(sp)
    800024d0:	01010413          	addi	s0,sp,16
    PCB_List::freeObject(q->queue);
    800024d4:	00853503          	ld	a0,8(a0)
    800024d8:	00000097          	auipc	ra,0x0
    800024dc:	b90080e7          	jalr	-1136(ra) # 80002068 <_ZN8PCB_List10freeObjectEPS_>
}
    800024e0:	00813083          	ld	ra,8(sp)
    800024e4:	00013403          	ld	s0,0(sp)
    800024e8:	01010113          	addi	sp,sp,16
    800024ec:	00008067          	ret

00000000800024f0 <_ZN9BufferCPPC1Ei>:
#include "../h/buffer_CPP_API.hpp"

BufferCPP::BufferCPP(int _cap) : cap(_cap + 1), head(0), tail(0) {
    800024f0:	fd010113          	addi	sp,sp,-48
    800024f4:	02113423          	sd	ra,40(sp)
    800024f8:	02813023          	sd	s0,32(sp)
    800024fc:	00913c23          	sd	s1,24(sp)
    80002500:	01213823          	sd	s2,16(sp)
    80002504:	01313423          	sd	s3,8(sp)
    80002508:	03010413          	addi	s0,sp,48
    8000250c:	00050493          	mv	s1,a0
    80002510:	00058913          	mv	s2,a1
    80002514:	0015879b          	addiw	a5,a1,1
    80002518:	0007851b          	sext.w	a0,a5
    8000251c:	00f4a023          	sw	a5,0(s1)
    80002520:	0004a823          	sw	zero,16(s1)
    80002524:	0004aa23          	sw	zero,20(s1)
    buffer = (int *)mem_alloc(sizeof(int) * cap);
    80002528:	00251513          	slli	a0,a0,0x2
    8000252c:	fffff097          	auipc	ra,0xfffff
    80002530:	c18080e7          	jalr	-1000(ra) # 80001144 <_Z9mem_allocm>
    80002534:	00a4b423          	sd	a0,8(s1)
    itemAvailable = new Semaphore(0);
    80002538:	01000513          	li	a0,16
    8000253c:	00001097          	auipc	ra,0x1
    80002540:	8d0080e7          	jalr	-1840(ra) # 80002e0c <_Znwm>
    80002544:	00050993          	mv	s3,a0
    80002548:	00000593          	li	a1,0
    8000254c:	00001097          	auipc	ra,0x1
    80002550:	a90080e7          	jalr	-1392(ra) # 80002fdc <_ZN9SemaphoreC1Ej>
    80002554:	0334b023          	sd	s3,32(s1)
    spaceAvailable = new Semaphore(_cap);
    80002558:	01000513          	li	a0,16
    8000255c:	00001097          	auipc	ra,0x1
    80002560:	8b0080e7          	jalr	-1872(ra) # 80002e0c <_Znwm>
    80002564:	00050993          	mv	s3,a0
    80002568:	00090593          	mv	a1,s2
    8000256c:	00001097          	auipc	ra,0x1
    80002570:	a70080e7          	jalr	-1424(ra) # 80002fdc <_ZN9SemaphoreC1Ej>
    80002574:	0134bc23          	sd	s3,24(s1)
    mutexHead = new Semaphore(1);
    80002578:	01000513          	li	a0,16
    8000257c:	00001097          	auipc	ra,0x1
    80002580:	890080e7          	jalr	-1904(ra) # 80002e0c <_Znwm>
    80002584:	00050913          	mv	s2,a0
    80002588:	00100593          	li	a1,1
    8000258c:	00001097          	auipc	ra,0x1
    80002590:	a50080e7          	jalr	-1456(ra) # 80002fdc <_ZN9SemaphoreC1Ej>
    80002594:	0324b423          	sd	s2,40(s1)
    mutexTail = new Semaphore(1);
    80002598:	01000513          	li	a0,16
    8000259c:	00001097          	auipc	ra,0x1
    800025a0:	870080e7          	jalr	-1936(ra) # 80002e0c <_Znwm>
    800025a4:	00050913          	mv	s2,a0
    800025a8:	00100593          	li	a1,1
    800025ac:	00001097          	auipc	ra,0x1
    800025b0:	a30080e7          	jalr	-1488(ra) # 80002fdc <_ZN9SemaphoreC1Ej>
    800025b4:	0324b823          	sd	s2,48(s1)
}
    800025b8:	02813083          	ld	ra,40(sp)
    800025bc:	02013403          	ld	s0,32(sp)
    800025c0:	01813483          	ld	s1,24(sp)
    800025c4:	01013903          	ld	s2,16(sp)
    800025c8:	00813983          	ld	s3,8(sp)
    800025cc:	03010113          	addi	sp,sp,48
    800025d0:	00008067          	ret
    800025d4:	00050493          	mv	s1,a0
    itemAvailable = new Semaphore(0);
    800025d8:	00098513          	mv	a0,s3
    800025dc:	00001097          	auipc	ra,0x1
    800025e0:	880080e7          	jalr	-1920(ra) # 80002e5c <_ZdlPv>
    800025e4:	00048513          	mv	a0,s1
    800025e8:	00009097          	auipc	ra,0x9
    800025ec:	c20080e7          	jalr	-992(ra) # 8000b208 <_Unwind_Resume>
    800025f0:	00050493          	mv	s1,a0
    spaceAvailable = new Semaphore(_cap);
    800025f4:	00098513          	mv	a0,s3
    800025f8:	00001097          	auipc	ra,0x1
    800025fc:	864080e7          	jalr	-1948(ra) # 80002e5c <_ZdlPv>
    80002600:	00048513          	mv	a0,s1
    80002604:	00009097          	auipc	ra,0x9
    80002608:	c04080e7          	jalr	-1020(ra) # 8000b208 <_Unwind_Resume>
    8000260c:	00050493          	mv	s1,a0
    mutexHead = new Semaphore(1);
    80002610:	00090513          	mv	a0,s2
    80002614:	00001097          	auipc	ra,0x1
    80002618:	848080e7          	jalr	-1976(ra) # 80002e5c <_ZdlPv>
    8000261c:	00048513          	mv	a0,s1
    80002620:	00009097          	auipc	ra,0x9
    80002624:	be8080e7          	jalr	-1048(ra) # 8000b208 <_Unwind_Resume>
    80002628:	00050493          	mv	s1,a0
    mutexTail = new Semaphore(1);
    8000262c:	00090513          	mv	a0,s2
    80002630:	00001097          	auipc	ra,0x1
    80002634:	82c080e7          	jalr	-2004(ra) # 80002e5c <_ZdlPv>
    80002638:	00048513          	mv	a0,s1
    8000263c:	00009097          	auipc	ra,0x9
    80002640:	bcc080e7          	jalr	-1076(ra) # 8000b208 <_Unwind_Resume>

0000000080002644 <_ZN9BufferCPP3putEi>:
    delete mutexTail;
    delete mutexHead;

}

void BufferCPP::put(int val) {
    80002644:	fe010113          	addi	sp,sp,-32
    80002648:	00113c23          	sd	ra,24(sp)
    8000264c:	00813823          	sd	s0,16(sp)
    80002650:	00913423          	sd	s1,8(sp)
    80002654:	01213023          	sd	s2,0(sp)
    80002658:	02010413          	addi	s0,sp,32
    8000265c:	00050493          	mv	s1,a0
    80002660:	00058913          	mv	s2,a1
    spaceAvailable->wait();
    80002664:	01853503          	ld	a0,24(a0)
    80002668:	00001097          	auipc	ra,0x1
    8000266c:	9ac080e7          	jalr	-1620(ra) # 80003014 <_ZN9Semaphore4waitEv>

    mutexTail->wait();
    80002670:	0304b503          	ld	a0,48(s1)
    80002674:	00001097          	auipc	ra,0x1
    80002678:	9a0080e7          	jalr	-1632(ra) # 80003014 <_ZN9Semaphore4waitEv>
    buffer[tail] = val;
    8000267c:	0084b783          	ld	a5,8(s1)
    80002680:	0144a703          	lw	a4,20(s1)
    80002684:	00271713          	slli	a4,a4,0x2
    80002688:	00e787b3          	add	a5,a5,a4
    8000268c:	0127a023          	sw	s2,0(a5)
    tail = (tail + 1) % cap;
    80002690:	0144a783          	lw	a5,20(s1)
    80002694:	0017879b          	addiw	a5,a5,1
    80002698:	0004a703          	lw	a4,0(s1)
    8000269c:	02e7e7bb          	remw	a5,a5,a4
    800026a0:	00f4aa23          	sw	a5,20(s1)
    mutexTail->signal();
    800026a4:	0304b503          	ld	a0,48(s1)
    800026a8:	00001097          	auipc	ra,0x1
    800026ac:	998080e7          	jalr	-1640(ra) # 80003040 <_ZN9Semaphore6signalEv>

    itemAvailable->signal();
    800026b0:	0204b503          	ld	a0,32(s1)
    800026b4:	00001097          	auipc	ra,0x1
    800026b8:	98c080e7          	jalr	-1652(ra) # 80003040 <_ZN9Semaphore6signalEv>

}
    800026bc:	01813083          	ld	ra,24(sp)
    800026c0:	01013403          	ld	s0,16(sp)
    800026c4:	00813483          	ld	s1,8(sp)
    800026c8:	00013903          	ld	s2,0(sp)
    800026cc:	02010113          	addi	sp,sp,32
    800026d0:	00008067          	ret

00000000800026d4 <_ZN9BufferCPP3getEv>:

int BufferCPP::get() {
    800026d4:	fe010113          	addi	sp,sp,-32
    800026d8:	00113c23          	sd	ra,24(sp)
    800026dc:	00813823          	sd	s0,16(sp)
    800026e0:	00913423          	sd	s1,8(sp)
    800026e4:	01213023          	sd	s2,0(sp)
    800026e8:	02010413          	addi	s0,sp,32
    800026ec:	00050493          	mv	s1,a0
    itemAvailable->wait();
    800026f0:	02053503          	ld	a0,32(a0)
    800026f4:	00001097          	auipc	ra,0x1
    800026f8:	920080e7          	jalr	-1760(ra) # 80003014 <_ZN9Semaphore4waitEv>

    mutexHead->wait();
    800026fc:	0284b503          	ld	a0,40(s1)
    80002700:	00001097          	auipc	ra,0x1
    80002704:	914080e7          	jalr	-1772(ra) # 80003014 <_ZN9Semaphore4waitEv>

    int ret = buffer[head];
    80002708:	0084b703          	ld	a4,8(s1)
    8000270c:	0104a783          	lw	a5,16(s1)
    80002710:	00279693          	slli	a3,a5,0x2
    80002714:	00d70733          	add	a4,a4,a3
    80002718:	00072903          	lw	s2,0(a4)
    head = (head + 1) % cap;
    8000271c:	0017879b          	addiw	a5,a5,1
    80002720:	0004a703          	lw	a4,0(s1)
    80002724:	02e7e7bb          	remw	a5,a5,a4
    80002728:	00f4a823          	sw	a5,16(s1)
    mutexHead->signal();
    8000272c:	0284b503          	ld	a0,40(s1)
    80002730:	00001097          	auipc	ra,0x1
    80002734:	910080e7          	jalr	-1776(ra) # 80003040 <_ZN9Semaphore6signalEv>

    spaceAvailable->signal();
    80002738:	0184b503          	ld	a0,24(s1)
    8000273c:	00001097          	auipc	ra,0x1
    80002740:	904080e7          	jalr	-1788(ra) # 80003040 <_ZN9Semaphore6signalEv>

    return ret;
}
    80002744:	00090513          	mv	a0,s2
    80002748:	01813083          	ld	ra,24(sp)
    8000274c:	01013403          	ld	s0,16(sp)
    80002750:	00813483          	ld	s1,8(sp)
    80002754:	00013903          	ld	s2,0(sp)
    80002758:	02010113          	addi	sp,sp,32
    8000275c:	00008067          	ret

0000000080002760 <_ZN9BufferCPP6getCntEv>:

int BufferCPP::getCnt() {
    80002760:	fe010113          	addi	sp,sp,-32
    80002764:	00113c23          	sd	ra,24(sp)
    80002768:	00813823          	sd	s0,16(sp)
    8000276c:	00913423          	sd	s1,8(sp)
    80002770:	01213023          	sd	s2,0(sp)
    80002774:	02010413          	addi	s0,sp,32
    80002778:	00050493          	mv	s1,a0
    int ret;

    mutexHead->wait();
    8000277c:	02853503          	ld	a0,40(a0)
    80002780:	00001097          	auipc	ra,0x1
    80002784:	894080e7          	jalr	-1900(ra) # 80003014 <_ZN9Semaphore4waitEv>
    mutexTail->wait();
    80002788:	0304b503          	ld	a0,48(s1)
    8000278c:	00001097          	auipc	ra,0x1
    80002790:	888080e7          	jalr	-1912(ra) # 80003014 <_ZN9Semaphore4waitEv>

    if (tail >= head) {
    80002794:	0144a783          	lw	a5,20(s1)
    80002798:	0104a903          	lw	s2,16(s1)
    8000279c:	0327ce63          	blt	a5,s2,800027d8 <_ZN9BufferCPP6getCntEv+0x78>
        ret = tail - head;
    800027a0:	4127893b          	subw	s2,a5,s2
    } else {
        ret = cap - head + tail;
    }

    mutexTail->signal();
    800027a4:	0304b503          	ld	a0,48(s1)
    800027a8:	00001097          	auipc	ra,0x1
    800027ac:	898080e7          	jalr	-1896(ra) # 80003040 <_ZN9Semaphore6signalEv>
    mutexHead->signal();
    800027b0:	0284b503          	ld	a0,40(s1)
    800027b4:	00001097          	auipc	ra,0x1
    800027b8:	88c080e7          	jalr	-1908(ra) # 80003040 <_ZN9Semaphore6signalEv>

    return ret;
}
    800027bc:	00090513          	mv	a0,s2
    800027c0:	01813083          	ld	ra,24(sp)
    800027c4:	01013403          	ld	s0,16(sp)
    800027c8:	00813483          	ld	s1,8(sp)
    800027cc:	00013903          	ld	s2,0(sp)
    800027d0:	02010113          	addi	sp,sp,32
    800027d4:	00008067          	ret
        ret = cap - head + tail;
    800027d8:	0004a703          	lw	a4,0(s1)
    800027dc:	4127093b          	subw	s2,a4,s2
    800027e0:	00f9093b          	addw	s2,s2,a5
    800027e4:	fc1ff06f          	j	800027a4 <_ZN9BufferCPP6getCntEv+0x44>

00000000800027e8 <_ZN9BufferCPPD1Ev>:
BufferCPP::~BufferCPP() {
    800027e8:	fe010113          	addi	sp,sp,-32
    800027ec:	00113c23          	sd	ra,24(sp)
    800027f0:	00813823          	sd	s0,16(sp)
    800027f4:	00913423          	sd	s1,8(sp)
    800027f8:	02010413          	addi	s0,sp,32
    800027fc:	00050493          	mv	s1,a0
    Console::putc('\n');
    80002800:	00a00513          	li	a0,10
    80002804:	00001097          	auipc	ra,0x1
    80002808:	894080e7          	jalr	-1900(ra) # 80003098 <_ZN7Console4putcEc>
    printString("Buffer deleted!\n");
    8000280c:	00006517          	auipc	a0,0x6
    80002810:	81450513          	addi	a0,a0,-2028 # 80008020 <CONSOLE_STATUS+0x10>
    80002814:	00000097          	auipc	ra,0x0
    80002818:	8cc080e7          	jalr	-1844(ra) # 800020e0 <_Z11printStringPKc>
    while (getCnt()) {
    8000281c:	00048513          	mv	a0,s1
    80002820:	00000097          	auipc	ra,0x0
    80002824:	f40080e7          	jalr	-192(ra) # 80002760 <_ZN9BufferCPP6getCntEv>
    80002828:	02050c63          	beqz	a0,80002860 <_ZN9BufferCPPD1Ev+0x78>
        char ch = buffer[head];
    8000282c:	0084b783          	ld	a5,8(s1)
    80002830:	0104a703          	lw	a4,16(s1)
    80002834:	00271713          	slli	a4,a4,0x2
    80002838:	00e787b3          	add	a5,a5,a4
        Console::putc(ch);
    8000283c:	0007c503          	lbu	a0,0(a5)
    80002840:	00001097          	auipc	ra,0x1
    80002844:	858080e7          	jalr	-1960(ra) # 80003098 <_ZN7Console4putcEc>
        head = (head + 1) % cap;
    80002848:	0104a783          	lw	a5,16(s1)
    8000284c:	0017879b          	addiw	a5,a5,1
    80002850:	0004a703          	lw	a4,0(s1)
    80002854:	02e7e7bb          	remw	a5,a5,a4
    80002858:	00f4a823          	sw	a5,16(s1)
    while (getCnt()) {
    8000285c:	fc1ff06f          	j	8000281c <_ZN9BufferCPPD1Ev+0x34>
    Console::putc('!');
    80002860:	02100513          	li	a0,33
    80002864:	00001097          	auipc	ra,0x1
    80002868:	834080e7          	jalr	-1996(ra) # 80003098 <_ZN7Console4putcEc>
    Console::putc('\n');
    8000286c:	00a00513          	li	a0,10
    80002870:	00001097          	auipc	ra,0x1
    80002874:	828080e7          	jalr	-2008(ra) # 80003098 <_ZN7Console4putcEc>
    mem_free(buffer);
    80002878:	0084b503          	ld	a0,8(s1)
    8000287c:	fffff097          	auipc	ra,0xfffff
    80002880:	8f4080e7          	jalr	-1804(ra) # 80001170 <_Z8mem_freePv>
    delete itemAvailable;
    80002884:	0204b503          	ld	a0,32(s1)
    80002888:	00050863          	beqz	a0,80002898 <_ZN9BufferCPPD1Ev+0xb0>
    8000288c:	00053783          	ld	a5,0(a0)
    80002890:	0087b783          	ld	a5,8(a5)
    80002894:	000780e7          	jalr	a5
    delete spaceAvailable;
    80002898:	0184b503          	ld	a0,24(s1)
    8000289c:	00050863          	beqz	a0,800028ac <_ZN9BufferCPPD1Ev+0xc4>
    800028a0:	00053783          	ld	a5,0(a0)
    800028a4:	0087b783          	ld	a5,8(a5)
    800028a8:	000780e7          	jalr	a5
    delete mutexTail;
    800028ac:	0304b503          	ld	a0,48(s1)
    800028b0:	00050863          	beqz	a0,800028c0 <_ZN9BufferCPPD1Ev+0xd8>
    800028b4:	00053783          	ld	a5,0(a0)
    800028b8:	0087b783          	ld	a5,8(a5)
    800028bc:	000780e7          	jalr	a5
    delete mutexHead;
    800028c0:	0284b503          	ld	a0,40(s1)
    800028c4:	00050863          	beqz	a0,800028d4 <_ZN9BufferCPPD1Ev+0xec>
    800028c8:	00053783          	ld	a5,0(a0)
    800028cc:	0087b783          	ld	a5,8(a5)
    800028d0:	000780e7          	jalr	a5
}
    800028d4:	01813083          	ld	ra,24(sp)
    800028d8:	01013403          	ld	s0,16(sp)
    800028dc:	00813483          	ld	s1,8(sp)
    800028e0:	02010113          	addi	sp,sp,32
    800028e4:	00008067          	ret

00000000800028e8 <_Z5test1v>:
    long id;
    bool finished;
};


void test1() {
    800028e8:	fd010113          	addi	sp,sp,-48
    800028ec:	02113423          	sd	ra,40(sp)
    800028f0:	02813023          	sd	s0,32(sp)
    800028f4:	03010413          	addi	s0,sp,48
    ForkThread(long _id) noexcept : Thread(), id(_id), finished(false) {}
    800028f8:	00007797          	auipc	a5,0x7
    800028fc:	5e878793          	addi	a5,a5,1512 # 80009ee0 <_ZTV10ForkThread+0x10>
    80002900:	fcf43823          	sd	a5,-48(s0)
    80002904:	00100793          	li	a5,1
    80002908:	fef43023          	sd	a5,-32(s0)
    8000290c:	fe040423          	sb	zero,-24(s0)
    ForkThread thread(1);

    thread.start();
    80002910:	fd040513          	addi	a0,s0,-48
    80002914:	00000097          	auipc	ra,0x0
    80002918:	63c080e7          	jalr	1596(ra) # 80002f50 <_ZN6Thread5startEv>
        return finished;
    8000291c:	fe844783          	lbu	a5,-24(s0)

    while (!thread.isFinished()) {
    80002920:	00079863          	bnez	a5,80002930 <_Z5test1v+0x48>
        thread_dispatch();
    80002924:	fffff097          	auipc	ra,0xfffff
    80002928:	8f4080e7          	jalr	-1804(ra) # 80001218 <_Z15thread_dispatchv>
    8000292c:	ff1ff06f          	j	8000291c <_Z5test1v+0x34>
    }

    printString("User main finished\n");
    80002930:	00005517          	auipc	a0,0x5
    80002934:	73850513          	addi	a0,a0,1848 # 80008068 <CONSOLE_STATUS+0x58>
    80002938:	fffff097          	auipc	ra,0xfffff
    8000293c:	7a8080e7          	jalr	1960(ra) # 800020e0 <_Z11printStringPKc>
}
    80002940:	02813083          	ld	ra,40(sp)
    80002944:	02013403          	ld	s0,32(sp)
    80002948:	03010113          	addi	sp,sp,48
    8000294c:	00008067          	ret

0000000080002950 <_Z8userMainv>:
//#include "../test/ConsumerProducer_CPP_API_test.hpp" // zadatak 4. CPP API i asinhrona promena konteksta

#include "../javni_test/prvi/test1.hpp"
//#include "../javni_test/drugi/test2.hpp"

void userMain() {
    80002950:	ff010113          	addi	sp,sp,-16
    80002954:	00113423          	sd	ra,8(sp)
    80002958:	00813023          	sd	s0,0(sp)
    8000295c:	01010413          	addi	s0,sp,16
    //producerConsumer_CPP_Sync_API(); // zadatak 3., kompletan CPP API sa semaforima, sinhrona promena konteksta

    //testSleeping(); // thread_sleep test C API
    //ConsumerProducerCPP::testConsumerProducer(); // zadatak 4. CPP API i asinhrona promena konteksta, kompletan test svega

    test1();
    80002960:	00000097          	auipc	ra,0x0
    80002964:	f88080e7          	jalr	-120(ra) # 800028e8 <_Z5test1v>
    //test2();

    80002968:	00813083          	ld	ra,8(sp)
    8000296c:	00013403          	ld	s0,0(sp)
    80002970:	01010113          	addi	sp,sp,16
    80002974:	00008067          	ret

0000000080002978 <_ZN10ForkThreadD1Ev>:
class ForkThread : public Thread {
    80002978:	ff010113          	addi	sp,sp,-16
    8000297c:	00813423          	sd	s0,8(sp)
    80002980:	01010413          	addi	s0,sp,16
    80002984:	00813403          	ld	s0,8(sp)
    80002988:	01010113          	addi	sp,sp,16
    8000298c:	00008067          	ret

0000000080002990 <_ZN10ForkThreadD0Ev>:
    80002990:	ff010113          	addi	sp,sp,-16
    80002994:	00113423          	sd	ra,8(sp)
    80002998:	00813023          	sd	s0,0(sp)
    8000299c:	01010413          	addi	s0,sp,16
    800029a0:	00000097          	auipc	ra,0x0
    800029a4:	4bc080e7          	jalr	1212(ra) # 80002e5c <_ZdlPv>
    800029a8:	00813083          	ld	ra,8(sp)
    800029ac:	00013403          	ld	s0,0(sp)
    800029b0:	01010113          	addi	sp,sp,16
    800029b4:	00008067          	ret

00000000800029b8 <_ZN10ForkThread3runEv>:
    virtual void run() {
    800029b8:	fc010113          	addi	sp,sp,-64
    800029bc:	02113c23          	sd	ra,56(sp)
    800029c0:	02813823          	sd	s0,48(sp)
    800029c4:	02913423          	sd	s1,40(sp)
    800029c8:	03213023          	sd	s2,32(sp)
    800029cc:	01313c23          	sd	s3,24(sp)
    800029d0:	01413823          	sd	s4,16(sp)
    800029d4:	01513423          	sd	s5,8(sp)
    800029d8:	04010413          	addi	s0,sp,64
    800029dc:	00050a13          	mv	s4,a0
        printString("Started thread id:");
    800029e0:	00005517          	auipc	a0,0x5
    800029e4:	65850513          	addi	a0,a0,1624 # 80008038 <CONSOLE_STATUS+0x28>
    800029e8:	fffff097          	auipc	ra,0xfffff
    800029ec:	6f8080e7          	jalr	1784(ra) # 800020e0 <_Z11printStringPKc>
        printInt(id);
    800029f0:	00000613          	li	a2,0
    800029f4:	00a00593          	li	a1,10
    800029f8:	010a2503          	lw	a0,16(s4)
    800029fc:	00000097          	auipc	ra,0x0
    80002a00:	87c080e7          	jalr	-1924(ra) # 80002278 <_Z8printIntiii>
        printString("\n");
    80002a04:	00006517          	auipc	a0,0x6
    80002a08:	9b450513          	addi	a0,a0,-1612 # 800083b8 <CONSOLE_STATUS+0x3a8>
    80002a0c:	fffff097          	auipc	ra,0xfffff
    80002a10:	6d4080e7          	jalr	1748(ra) # 800020e0 <_Z11printStringPKc>
        ForkThread* thread = new ForkThread(id + 1);
    80002a14:	02000513          	li	a0,32
    80002a18:	00000097          	auipc	ra,0x0
    80002a1c:	3f4080e7          	jalr	1012(ra) # 80002e0c <_Znwm>
    80002a20:	00050993          	mv	s3,a0
    80002a24:	010a3503          	ld	a0,16(s4)
    80002a28:	00150793          	addi	a5,a0,1
    ForkThread(long _id) noexcept : Thread(), id(_id), finished(false) {}
    80002a2c:	00007717          	auipc	a4,0x7
    80002a30:	4b470713          	addi	a4,a4,1204 # 80009ee0 <_ZTV10ForkThread+0x10>
    80002a34:	00e9b023          	sd	a4,0(s3)
    80002a38:	00f9b823          	sd	a5,16(s3)
    80002a3c:	00098c23          	sb	zero,24(s3)
        ForkThread** threads = (ForkThread** ) mem_alloc(sizeof(ForkThread*) * id);
    80002a40:	00351513          	slli	a0,a0,0x3
    80002a44:	ffffe097          	auipc	ra,0xffffe
    80002a48:	700080e7          	jalr	1792(ra) # 80001144 <_Z9mem_allocm>
        if (threads != nullptr) {
    80002a4c:	10050063          	beqz	a0,80002b4c <_ZN10ForkThread3runEv+0x194>
    80002a50:	00050a93          	mv	s5,a0
            for (long i = 0; i < id; i++) {
    80002a54:	00000493          	li	s1,0
    80002a58:	010a3783          	ld	a5,16(s4)
    80002a5c:	02f4de63          	bge	s1,a5,80002a98 <_ZN10ForkThread3runEv+0xe0>
                threads[i] = new ForkThread(id);
    80002a60:	02000513          	li	a0,32
    80002a64:	00000097          	auipc	ra,0x0
    80002a68:	3a8080e7          	jalr	936(ra) # 80002e0c <_Znwm>
    80002a6c:	010a3703          	ld	a4,16(s4)
    ForkThread(long _id) noexcept : Thread(), id(_id), finished(false) {}
    80002a70:	00007697          	auipc	a3,0x7
    80002a74:	47068693          	addi	a3,a3,1136 # 80009ee0 <_ZTV10ForkThread+0x10>
    80002a78:	00d53023          	sd	a3,0(a0)
    80002a7c:	00e53823          	sd	a4,16(a0)
    80002a80:	00050c23          	sb	zero,24(a0)
                threads[i] = new ForkThread(id);
    80002a84:	00349713          	slli	a4,s1,0x3
    80002a88:	00ea8733          	add	a4,s5,a4
    80002a8c:	00a73023          	sd	a0,0(a4)
            for (long i = 0; i < id; i++) {
    80002a90:	00148493          	addi	s1,s1,1
    80002a94:	fc5ff06f          	j	80002a58 <_ZN10ForkThread3runEv+0xa0>
            if (thread != nullptr) {
    80002a98:	06098a63          	beqz	s3,80002b0c <_ZN10ForkThread3runEv+0x154>
                if (thread->start() == 0) {
    80002a9c:	00098513          	mv	a0,s3
    80002aa0:	00000097          	auipc	ra,0x0
    80002aa4:	4b0080e7          	jalr	1200(ra) # 80002f50 <_ZN6Thread5startEv>
    80002aa8:	00050913          	mv	s2,a0
    80002aac:	04051863          	bnez	a0,80002afc <_ZN10ForkThread3runEv+0x144>
                    for (int i = 0; i < 5000; i++) {
    80002ab0:	00050493          	mv	s1,a0
    80002ab4:	0100006f          	j	80002ac4 <_ZN10ForkThread3runEv+0x10c>
                        thread_dispatch();
    80002ab8:	ffffe097          	auipc	ra,0xffffe
    80002abc:	760080e7          	jalr	1888(ra) # 80001218 <_Z15thread_dispatchv>
                    for (int i = 0; i < 5000; i++) {
    80002ac0:	0014849b          	addiw	s1,s1,1
    80002ac4:	000017b7          	lui	a5,0x1
    80002ac8:	38778793          	addi	a5,a5,903 # 1387 <_entry-0x7fffec79>
    80002acc:	0097ce63          	blt	a5,s1,80002ae8 <_ZN10ForkThread3runEv+0x130>
                        for (int j = 0; j < 5000; j++) {
    80002ad0:	00090713          	mv	a4,s2
    80002ad4:	000017b7          	lui	a5,0x1
    80002ad8:	38778793          	addi	a5,a5,903 # 1387 <_entry-0x7fffec79>
    80002adc:	fce7cee3          	blt	a5,a4,80002ab8 <_ZN10ForkThread3runEv+0x100>
    80002ae0:	0017071b          	addiw	a4,a4,1
    80002ae4:	ff1ff06f          	j	80002ad4 <_ZN10ForkThread3runEv+0x11c>
        return finished;
    80002ae8:	0189c783          	lbu	a5,24(s3)
                    while (!thread->isFinished()) {
    80002aec:	00079863          	bnez	a5,80002afc <_ZN10ForkThread3runEv+0x144>
                        thread_dispatch();
    80002af0:	ffffe097          	auipc	ra,0xffffe
    80002af4:	728080e7          	jalr	1832(ra) # 80001218 <_Z15thread_dispatchv>
                    while (!thread->isFinished()) {
    80002af8:	ff1ff06f          	j	80002ae8 <_ZN10ForkThread3runEv+0x130>
                delete thread;
    80002afc:	0009b783          	ld	a5,0(s3)
    80002b00:	0107b783          	ld	a5,16(a5)
    80002b04:	00098513          	mv	a0,s3
    80002b08:	000780e7          	jalr	a5
                        for (int j = 0; j < 5000; j++) {
    80002b0c:	00000493          	li	s1,0
    80002b10:	0080006f          	j	80002b18 <_ZN10ForkThread3runEv+0x160>
            for (long i = 0; i < id; i++) {
    80002b14:	00148493          	addi	s1,s1,1
    80002b18:	010a3783          	ld	a5,16(s4)
    80002b1c:	02f4d263          	bge	s1,a5,80002b40 <_ZN10ForkThread3runEv+0x188>
                delete threads[i];
    80002b20:	00349793          	slli	a5,s1,0x3
    80002b24:	00fa87b3          	add	a5,s5,a5
    80002b28:	0007b503          	ld	a0,0(a5)
    80002b2c:	fe0504e3          	beqz	a0,80002b14 <_ZN10ForkThread3runEv+0x15c>
    80002b30:	00053783          	ld	a5,0(a0)
    80002b34:	0107b783          	ld	a5,16(a5)
    80002b38:	000780e7          	jalr	a5
    80002b3c:	fd9ff06f          	j	80002b14 <_ZN10ForkThread3runEv+0x15c>
            mem_free(threads);
    80002b40:	000a8513          	mv	a0,s5
    80002b44:	ffffe097          	auipc	ra,0xffffe
    80002b48:	62c080e7          	jalr	1580(ra) # 80001170 <_Z8mem_freePv>
        printString("Finished thread id:");
    80002b4c:	00005517          	auipc	a0,0x5
    80002b50:	50450513          	addi	a0,a0,1284 # 80008050 <CONSOLE_STATUS+0x40>
    80002b54:	fffff097          	auipc	ra,0xfffff
    80002b58:	58c080e7          	jalr	1420(ra) # 800020e0 <_Z11printStringPKc>
        printInt(id);
    80002b5c:	00000613          	li	a2,0
    80002b60:	00a00593          	li	a1,10
    80002b64:	010a2503          	lw	a0,16(s4)
    80002b68:	fffff097          	auipc	ra,0xfffff
    80002b6c:	710080e7          	jalr	1808(ra) # 80002278 <_Z8printIntiii>
        printString("\n");
    80002b70:	00006517          	auipc	a0,0x6
    80002b74:	84850513          	addi	a0,a0,-1976 # 800083b8 <CONSOLE_STATUS+0x3a8>
    80002b78:	fffff097          	auipc	ra,0xfffff
    80002b7c:	568080e7          	jalr	1384(ra) # 800020e0 <_Z11printStringPKc>
        finished = true;
    80002b80:	00100793          	li	a5,1
    80002b84:	00fa0c23          	sb	a5,24(s4)
    }
    80002b88:	03813083          	ld	ra,56(sp)
    80002b8c:	03013403          	ld	s0,48(sp)
    80002b90:	02813483          	ld	s1,40(sp)
    80002b94:	02013903          	ld	s2,32(sp)
    80002b98:	01813983          	ld	s3,24(sp)
    80002b9c:	01013a03          	ld	s4,16(sp)
    80002ba0:	00813a83          	ld	s5,8(sp)
    80002ba4:	04010113          	addi	sp,sp,64
    80002ba8:	00008067          	ret

0000000080002bac <main>:
#include "../h/PCB.hpp"
#include "../h/userMain.hpp"
#include "../h/SEM.hpp"
#include "../h/PCB_List.hpp"

int main(){
    80002bac:	fd010113          	addi	sp,sp,-48
    80002bb0:	02113423          	sd	ra,40(sp)
    80002bb4:	02813023          	sd	s0,32(sp)
    80002bb8:	00913c23          	sd	s1,24(sp)
    80002bbc:	01213823          	sd	s2,16(sp)
    80002bc0:	01313423          	sd	s3,8(sp)
    80002bc4:	03010413          	addi	s0,sp,48

    int blockNum = (int)(((uint64)HEAP_END_ADDR - (uint64)HEAP_START_ADDR) / (BLOCK_SIZE * 8));
    80002bc8:	00007997          	auipc	s3,0x7
    80002bcc:	3989b983          	ld	s3,920(s3) # 80009f60 <_GLOBAL_OFFSET_TABLE_+0x30>
    80002bd0:	0009b503          	ld	a0,0(s3)
    80002bd4:	00007917          	auipc	s2,0x7
    80002bd8:	41493903          	ld	s2,1044(s2) # 80009fe8 <_GLOBAL_OFFSET_TABLE_+0xb8>
    80002bdc:	00093483          	ld	s1,0(s2)
    80002be0:	40a484b3          	sub	s1,s1,a0
    80002be4:	00f4d493          	srli	s1,s1,0xf
    80002be8:	0004849b          	sext.w	s1,s1
    kmem_init((void *)HEAP_START_ADDR, blockNum);
    80002bec:	00048593          	mv	a1,s1
    80002bf0:	00002097          	auipc	ra,0x2
    80002bf4:	3ec080e7          	jalr	1004(ra) # 80004fdc <_Z9kmem_initPvi>
    MemoryAllocator::mem_init((void *)((uint64)HEAP_START_ADDR + (uint64)blockNum * BLOCK_SIZE), (void *)HEAP_END_ADDR);
    80002bf8:	00c49493          	slli	s1,s1,0xc
    80002bfc:	0009b503          	ld	a0,0(s3)
    80002c00:	00093583          	ld	a1,0(s2)
    80002c04:	00950533          	add	a0,a0,s1
    80002c08:	00001097          	auipc	ra,0x1
    80002c0c:	2f8080e7          	jalr	760(ra) # 80003f00 <_ZN15MemoryAllocator8mem_initEPvS0_>

    //Creating kmem_caches for different objects
    kmem_cache_t *PCB_k = kmem_cache_create("PCB", sizeof(PCB), nullptr, (void (*)(void *))(PCB::dtor));
    80002c10:	00007697          	auipc	a3,0x7
    80002c14:	3f86b683          	ld	a3,1016(a3) # 8000a008 <_GLOBAL_OFFSET_TABLE_+0xd8>
    80002c18:	00000613          	li	a2,0
    80002c1c:	04000593          	li	a1,64
    80002c20:	00005517          	auipc	a0,0x5
    80002c24:	46050513          	addi	a0,a0,1120 # 80008080 <CONSOLE_STATUS+0x70>
    80002c28:	00002097          	auipc	ra,0x2
    80002c2c:	3ec080e7          	jalr	1004(ra) # 80005014 <_Z17kmem_cache_createPKcmPFvPvES3_>
    static void setCache(kmem_cache_t *c) { PCB::cache = c; }
    80002c30:	00007797          	auipc	a5,0x7
    80002c34:	3487b783          	ld	a5,840(a5) # 80009f78 <_GLOBAL_OFFSET_TABLE_+0x48>
    80002c38:	00a7b023          	sd	a0,0(a5)
    PCB::setCache(PCB_k);

    kmem_cache_t *SEM_k = kmem_cache_create("SEM", sizeof(SEM), nullptr, (void (*)(void *))(SEM::dtor));
    80002c3c:	00007697          	auipc	a3,0x7
    80002c40:	32c6b683          	ld	a3,812(a3) # 80009f68 <_GLOBAL_OFFSET_TABLE_+0x38>
    80002c44:	00000613          	li	a2,0
    80002c48:	01000593          	li	a1,16
    80002c4c:	00005517          	auipc	a0,0x5
    80002c50:	43c50513          	addi	a0,a0,1084 # 80008088 <CONSOLE_STATUS+0x78>
    80002c54:	00002097          	auipc	ra,0x2
    80002c58:	3c0080e7          	jalr	960(ra) # 80005014 <_Z17kmem_cache_createPKcmPFvPvES3_>
#include "./PCB.hpp"
#include "./Queue.hpp"

class SEM{
public:
    static void setCache(kmem_cache_t *c) { SEM::cache = c; }
    80002c5c:	00007797          	auipc	a5,0x7
    80002c60:	3a47b783          	ld	a5,932(a5) # 8000a000 <_GLOBAL_OFFSET_TABLE_+0xd0>
    80002c64:	00a7b023          	sd	a0,0(a5)
    SEM::setCache(SEM_k);


    kmem_cache_t *QUEUE_k = kmem_cache_create("QUEUE", sizeof(Queue), nullptr, (void (*)(void *))(Queue::dtor));
    80002c68:	00007697          	auipc	a3,0x7
    80002c6c:	3886b683          	ld	a3,904(a3) # 80009ff0 <_GLOBAL_OFFSET_TABLE_+0xc0>
    80002c70:	00000613          	li	a2,0
    80002c74:	01000593          	li	a1,16
    80002c78:	00005517          	auipc	a0,0x5
    80002c7c:	41850513          	addi	a0,a0,1048 # 80008090 <CONSOLE_STATUS+0x80>
    80002c80:	00002097          	auipc	ra,0x2
    80002c84:	394080e7          	jalr	916(ra) # 80005014 <_Z17kmem_cache_createPKcmPFvPvES3_>

class PCB_List;

class Queue{
public:
    static void setCache(kmem_cache_t *c) { Queue::cache = c; }
    80002c88:	00007797          	auipc	a5,0x7
    80002c8c:	3887b783          	ld	a5,904(a5) # 8000a010 <_GLOBAL_OFFSET_TABLE_+0xe0>
    80002c90:	00a7b023          	sd	a0,0(a5)
    Queue::setCache(QUEUE_k);


    kmem_cache_t *PCB_List_k = kmem_cache_create("PCB_List", sizeof(PCB_List), nullptr, (void (*)(void *))(PCB_List::dtor));
    80002c94:	00007697          	auipc	a3,0x7
    80002c98:	33c6b683          	ld	a3,828(a3) # 80009fd0 <_GLOBAL_OFFSET_TABLE_+0xa0>
    80002c9c:	00000613          	li	a2,0
    80002ca0:	01000593          	li	a1,16
    80002ca4:	00005517          	auipc	a0,0x5
    80002ca8:	3f450513          	addi	a0,a0,1012 # 80008098 <CONSOLE_STATUS+0x88>
    80002cac:	00002097          	auipc	ra,0x2
    80002cb0:	368080e7          	jalr	872(ra) # 80005014 <_Z17kmem_cache_createPKcmPFvPvES3_>
        }
    };

    static void setCache(kmem_cache_t *c) { PCB_List::cache = c; }
    80002cb4:	00007797          	auipc	a5,0x7
    80002cb8:	3447b783          	ld	a5,836(a5) # 80009ff8 <_GLOBAL_OFFSET_TABLE_+0xc8>
    80002cbc:	00a7b023          	sd	a0,0(a5)
    PCB_List::setCache(PCB_List_k);

    kmem_cache_t *PCB_List_Elem_k = kmem_cache_create("PCB_List_Elem", sizeof(PCB_List::Elem), nullptr, nullptr);
    80002cc0:	00000693          	li	a3,0
    80002cc4:	00000613          	li	a2,0
    80002cc8:	01000593          	li	a1,16
    80002ccc:	00005517          	auipc	a0,0x5
    80002cd0:	3dc50513          	addi	a0,a0,988 # 800080a8 <CONSOLE_STATUS+0x98>
    80002cd4:	00002097          	auipc	ra,0x2
    80002cd8:	340080e7          	jalr	832(ra) # 80005014 <_Z17kmem_cache_createPKcmPFvPvES3_>
        static void setCache(kmem_cache_t *c){ Elem::elemCache = c; }
    80002cdc:	00007797          	auipc	a5,0x7
    80002ce0:	2a47b783          	ld	a5,676(a5) # 80009f80 <_GLOBAL_OFFSET_TABLE_+0x50>
    80002ce4:	00a7b023          	sd	a0,0(a5)
    PCB_List::Elem::setCache(PCB_List_Elem_k);

    kmem_cache_t *SLEEP_Q_k = kmem_cache_create("SleepQ", sizeof(SleepQ::ElemQ), nullptr, nullptr);
    80002ce8:	00000693          	li	a3,0
    80002cec:	00000613          	li	a2,0
    80002cf0:	01800593          	li	a1,24
    80002cf4:	00005517          	auipc	a0,0x5
    80002cf8:	3c450513          	addi	a0,a0,964 # 800080b8 <CONSOLE_STATUS+0xa8>
    80002cfc:	00002097          	auipc	ra,0x2
    80002d00:	318080e7          	jalr	792(ra) # 80005014 <_Z17kmem_cache_createPKcmPFvPvES3_>
            return MemoryAllocator::sys_mem_alloc(size);
        }
        void operator delete(void *p){
            MemoryAllocator::sys_mem_free(p);
        }
        static void setCache(kmem_cache_t *c){ ElemQ::cache = c; }
    80002d04:	00007797          	auipc	a5,0x7
    80002d08:	26c7b783          	ld	a5,620(a5) # 80009f70 <_GLOBAL_OFFSET_TABLE_+0x40>
    80002d0c:	00a7b023          	sd	a0,0(a5)
    SleepQ::ElemQ::setCache(SLEEP_Q_k);

    //init scheduler
    kmem_cache_t *SCHEDULER_k = kmem_cache_create("SCHEDULER", sizeof(PCB_List), nullptr, (void (*)(void *))(PCB_List::dtor));
    80002d10:	00007697          	auipc	a3,0x7
    80002d14:	2c06b683          	ld	a3,704(a3) # 80009fd0 <_GLOBAL_OFFSET_TABLE_+0xa0>
    80002d18:	00000613          	li	a2,0
    80002d1c:	01000593          	li	a1,16
    80002d20:	00005517          	auipc	a0,0x5
    80002d24:	3a050513          	addi	a0,a0,928 # 800080c0 <CONSOLE_STATUS+0xb0>
    80002d28:	00002097          	auipc	ra,0x2
    80002d2c:	2ec080e7          	jalr	748(ra) # 80005014 <_Z17kmem_cache_createPKcmPFvPvES3_>
    Scheduler::createScheduler(SCHEDULER_k);
    80002d30:	00001097          	auipc	ra,0x1
    80002d34:	148080e7          	jalr	328(ra) # 80003e78 <_ZN9Scheduler15createSchedulerEP10kmem_cache>

    //init threads
    Riscv::w_stvec((uint64) &Riscv::supervisorTrap);
    80002d38:	00007797          	auipc	a5,0x7
    80002d3c:	2807b783          	ld	a5,640(a5) # 80009fb8 <_GLOBAL_OFFSET_TABLE_+0x88>
    return stvec;
}

inline void Riscv::w_stvec(uint64 stvec)
{
    __asm__ volatile ("csrw stvec, %[stvec]" : : [stvec] "r"(stvec));
    80002d40:	10579073          	csrw	stvec,a5

    thread_t main;
    //thread_t getDataFromConsole_t;
    thread_t sendDataToConsole_t;
    thread_t userMain_t;
    main = PCB::createThread(nullptr, nullptr);
    80002d44:	00000593          	li	a1,0
    80002d48:	00000513          	li	a0,0
    80002d4c:	ffffe097          	auipc	ra,0xffffe
    80002d50:	7a4080e7          	jalr	1956(ra) # 800014f0 <_ZN3PCB12createThreadEPFvPvES0_>
    PCB::running = main;
    80002d54:	00007797          	auipc	a5,0x7
    80002d58:	28c7b783          	ld	a5,652(a5) # 80009fe0 <_GLOBAL_OFFSET_TABLE_+0xb0>
    80002d5c:	00a7b023          	sd	a0,0(a5)
    PCB::main_t = main;
    80002d60:	00007797          	auipc	a5,0x7
    80002d64:	2507b783          	ld	a5,592(a5) # 80009fb0 <_GLOBAL_OFFSET_TABLE_+0x80>
    80002d68:	00a7b023          	sd	a0,0(a5)
    userMain_t = PCB::createThread((void(*)(void*))(userMain), nullptr);
    80002d6c:	00000593          	li	a1,0
    80002d70:	00007517          	auipc	a0,0x7
    80002d74:	1c853503          	ld	a0,456(a0) # 80009f38 <_GLOBAL_OFFSET_TABLE_+0x8>
    80002d78:	ffffe097          	auipc	ra,0xffffe
    80002d7c:	778080e7          	jalr	1912(ra) # 800014f0 <_ZN3PCB12createThreadEPFvPvES0_>
    80002d80:	00050913          	mv	s2,a0
    PCB::user_main_t = userMain_t;
    80002d84:	00007797          	auipc	a5,0x7
    80002d88:	20c7b783          	ld	a5,524(a5) # 80009f90 <_GLOBAL_OFFSET_TABLE_+0x60>
    80002d8c:	00a7b023          	sd	a0,0(a5)
    sendDataToConsole_t = PCB::createThread((void (*)(void *))ConsoleHandler::sendDataToConsole, nullptr);
    80002d90:	00000593          	li	a1,0
    80002d94:	00007517          	auipc	a0,0x7
    80002d98:	1ac53503          	ld	a0,428(a0) # 80009f40 <_GLOBAL_OFFSET_TABLE_+0x10>
    80002d9c:	ffffe097          	auipc	ra,0xffffe
    80002da0:	754080e7          	jalr	1876(ra) # 800014f0 <_ZN3PCB12createThreadEPFvPvES0_>
    PCB::console_t = sendDataToConsole_t;
    80002da4:	00007797          	auipc	a5,0x7
    80002da8:	1f47b783          	ld	a5,500(a5) # 80009f98 <_GLOBAL_OFFSET_TABLE_+0x68>
    80002dac:	00a7b023          	sd	a0,0(a5)
    __asm__ volatile ("csrw sip, %[sip]" : : [sip] "r"(sip));
}

inline void Riscv::ms_sstatus(uint64 mask)
{
    __asm__ volatile ("csrs sstatus, %[mask]" : : [mask] "r"(mask));
    80002db0:	00200793          	li	a5,2
    80002db4:	1007a073          	csrs	sstatus,a5
    static uint64 get_thread_counter() {return PCB::thread_counter;}
    80002db8:	00007797          	auipc	a5,0x7
    80002dbc:	2107b783          	ld	a5,528(a5) # 80009fc8 <_GLOBAL_OFFSET_TABLE_+0x98>
    80002dc0:	0007b483          	ld	s1,0(a5)
    80002dc4:	0180006f          	j	80002ddc <main+0x230>
    80002dc8:	00007797          	auipc	a5,0x7
    80002dcc:	2007b783          	ld	a5,512(a5) # 80009fc8 <_GLOBAL_OFFSET_TABLE_+0x98>
    80002dd0:	0007b483          	ld	s1,0(a5)
    Riscv::ms_sstatus(Riscv::SSTATUS_SIE);

    uint64 cont = PCB::get_thread_counter();
    while(!(userMain_t->isFinished()) || cont > 2){
        cont = PCB::get_thread_counter();
        thread_dispatch();
    80002dd4:	ffffe097          	auipc	ra,0xffffe
    80002dd8:	444080e7          	jalr	1092(ra) # 80001218 <_Z15thread_dispatchv>
    bool isFinished() const { return finished; }
    80002ddc:	03894783          	lbu	a5,56(s2)
    while(!(userMain_t->isFinished()) || cont > 2){
    80002de0:	fe0784e3          	beqz	a5,80002dc8 <main+0x21c>
    80002de4:	00200793          	li	a5,2
    80002de8:	fe97e0e3          	bltu	a5,s1,80002dc8 <main+0x21c>
    }
    return 0;
    80002dec:	00000513          	li	a0,0
    80002df0:	02813083          	ld	ra,40(sp)
    80002df4:	02013403          	ld	s0,32(sp)
    80002df8:	01813483          	ld	s1,24(sp)
    80002dfc:	01013903          	ld	s2,16(sp)
    80002e00:	00813983          	ld	s3,8(sp)
    80002e04:	03010113          	addi	sp,sp,48
    80002e08:	00008067          	ret

0000000080002e0c <_Znwm>:
#include "../h/syscall_c.hpp"

//using size_t = decltype(sizeof(0));

void *operator new(size_t n)
{
    80002e0c:	ff010113          	addi	sp,sp,-16
    80002e10:	00113423          	sd	ra,8(sp)
    80002e14:	00813023          	sd	s0,0(sp)
    80002e18:	01010413          	addi	s0,sp,16
    return mem_alloc(n);
    80002e1c:	ffffe097          	auipc	ra,0xffffe
    80002e20:	328080e7          	jalr	808(ra) # 80001144 <_Z9mem_allocm>
}
    80002e24:	00813083          	ld	ra,8(sp)
    80002e28:	00013403          	ld	s0,0(sp)
    80002e2c:	01010113          	addi	sp,sp,16
    80002e30:	00008067          	ret

0000000080002e34 <_Znam>:

void *operator new[](size_t n)
{
    80002e34:	ff010113          	addi	sp,sp,-16
    80002e38:	00113423          	sd	ra,8(sp)
    80002e3c:	00813023          	sd	s0,0(sp)
    80002e40:	01010413          	addi	s0,sp,16
    return mem_alloc(n);
    80002e44:	ffffe097          	auipc	ra,0xffffe
    80002e48:	300080e7          	jalr	768(ra) # 80001144 <_Z9mem_allocm>
}
    80002e4c:	00813083          	ld	ra,8(sp)
    80002e50:	00013403          	ld	s0,0(sp)
    80002e54:	01010113          	addi	sp,sp,16
    80002e58:	00008067          	ret

0000000080002e5c <_ZdlPv>:

void operator delete(void *p) noexcept
{
    80002e5c:	ff010113          	addi	sp,sp,-16
    80002e60:	00113423          	sd	ra,8(sp)
    80002e64:	00813023          	sd	s0,0(sp)
    80002e68:	01010413          	addi	s0,sp,16
    mem_free(p);
    80002e6c:	ffffe097          	auipc	ra,0xffffe
    80002e70:	304080e7          	jalr	772(ra) # 80001170 <_Z8mem_freePv>
}
    80002e74:	00813083          	ld	ra,8(sp)
    80002e78:	00013403          	ld	s0,0(sp)
    80002e7c:	01010113          	addi	sp,sp,16
    80002e80:	00008067          	ret

0000000080002e84 <_ZdaPv>:

void operator delete[](void *p) noexcept
{
    80002e84:	ff010113          	addi	sp,sp,-16
    80002e88:	00113423          	sd	ra,8(sp)
    80002e8c:	00813023          	sd	s0,0(sp)
    80002e90:	01010413          	addi	s0,sp,16
    mem_free(p);
    80002e94:	ffffe097          	auipc	ra,0xffffe
    80002e98:	2dc080e7          	jalr	732(ra) # 80001170 <_Z8mem_freePv>
    80002e9c:	00813083          	ld	ra,8(sp)
    80002ea0:	00013403          	ld	s0,0(sp)
    80002ea4:	01010113          	addi	sp,sp,16
    80002ea8:	00008067          	ret

0000000080002eac <_ZN6Thread13threadWrapperEPv>:
#include "../h/syscall_cpp.hpp"

void Thread::threadWrapper(void *arg) {
    80002eac:	ff010113          	addi	sp,sp,-16
    80002eb0:	00113423          	sd	ra,8(sp)
    80002eb4:	00813023          	sd	s0,0(sp)
    80002eb8:	01010413          	addi	s0,sp,16
    ((Thread*)arg)->run();
    80002ebc:	00053783          	ld	a5,0(a0)
    80002ec0:	0007b783          	ld	a5,0(a5)
    80002ec4:	000780e7          	jalr	a5
}
    80002ec8:	00813083          	ld	ra,8(sp)
    80002ecc:	00013403          	ld	s0,0(sp)
    80002ed0:	01010113          	addi	sp,sp,16
    80002ed4:	00008067          	ret

0000000080002ed8 <_ZN9SemaphoreD1Ev>:


Semaphore::Semaphore(unsigned int init) {
    sem_open(&myHandle, init);
}
Semaphore::~Semaphore() {
    80002ed8:	ff010113          	addi	sp,sp,-16
    80002edc:	00113423          	sd	ra,8(sp)
    80002ee0:	00813023          	sd	s0,0(sp)
    80002ee4:	01010413          	addi	s0,sp,16
    80002ee8:	00007797          	auipc	a5,0x7
    80002eec:	02078793          	addi	a5,a5,32 # 80009f08 <_ZTV9Semaphore+0x10>
    80002ef0:	00f53023          	sd	a5,0(a0)
    sem_close(myHandle);
    80002ef4:	00853503          	ld	a0,8(a0)
    80002ef8:	ffffe097          	auipc	ra,0xffffe
    80002efc:	388080e7          	jalr	904(ra) # 80001280 <_Z9sem_closeP3SEM>
}
    80002f00:	00813083          	ld	ra,8(sp)
    80002f04:	00013403          	ld	s0,0(sp)
    80002f08:	01010113          	addi	sp,sp,16
    80002f0c:	00008067          	ret

0000000080002f10 <_ZN9SemaphoreD0Ev>:
Semaphore::~Semaphore() {
    80002f10:	fe010113          	addi	sp,sp,-32
    80002f14:	00113c23          	sd	ra,24(sp)
    80002f18:	00813823          	sd	s0,16(sp)
    80002f1c:	00913423          	sd	s1,8(sp)
    80002f20:	02010413          	addi	s0,sp,32
    80002f24:	00050493          	mv	s1,a0
}
    80002f28:	00000097          	auipc	ra,0x0
    80002f2c:	fb0080e7          	jalr	-80(ra) # 80002ed8 <_ZN9SemaphoreD1Ev>
    80002f30:	00048513          	mv	a0,s1
    80002f34:	00000097          	auipc	ra,0x0
    80002f38:	f28080e7          	jalr	-216(ra) # 80002e5c <_ZdlPv>
    80002f3c:	01813083          	ld	ra,24(sp)
    80002f40:	01013403          	ld	s0,16(sp)
    80002f44:	00813483          	ld	s1,8(sp)
    80002f48:	02010113          	addi	sp,sp,32
    80002f4c:	00008067          	ret

0000000080002f50 <_ZN6Thread5startEv>:
int Thread::start() {
    80002f50:	ff010113          	addi	sp,sp,-16
    80002f54:	00113423          	sd	ra,8(sp)
    80002f58:	00813023          	sd	s0,0(sp)
    80002f5c:	01010413          	addi	s0,sp,16
    return thread_create(&myHandle,  threadWrapper, this);
    80002f60:	00050613          	mv	a2,a0
    80002f64:	00000597          	auipc	a1,0x0
    80002f68:	f4858593          	addi	a1,a1,-184 # 80002eac <_ZN6Thread13threadWrapperEPv>
    80002f6c:	00850513          	addi	a0,a0,8
    80002f70:	ffffe097          	auipc	ra,0xffffe
    80002f74:	23c080e7          	jalr	572(ra) # 800011ac <_Z13thread_createPP3PCBPFvPvES2_>
}
    80002f78:	00813083          	ld	ra,8(sp)
    80002f7c:	00013403          	ld	s0,0(sp)
    80002f80:	01010113          	addi	sp,sp,16
    80002f84:	00008067          	ret

0000000080002f88 <_ZN6Thread8dispatchEv>:
void Thread::dispatch() {
    80002f88:	ff010113          	addi	sp,sp,-16
    80002f8c:	00113423          	sd	ra,8(sp)
    80002f90:	00813023          	sd	s0,0(sp)
    80002f94:	01010413          	addi	s0,sp,16
    thread_dispatch();
    80002f98:	ffffe097          	auipc	ra,0xffffe
    80002f9c:	280080e7          	jalr	640(ra) # 80001218 <_Z15thread_dispatchv>
}
    80002fa0:	00813083          	ld	ra,8(sp)
    80002fa4:	00013403          	ld	s0,0(sp)
    80002fa8:	01010113          	addi	sp,sp,16
    80002fac:	00008067          	ret

0000000080002fb0 <_ZN6Thread5sleepEm>:
int Thread::sleep(time_t time) {
    80002fb0:	ff010113          	addi	sp,sp,-16
    80002fb4:	00113423          	sd	ra,8(sp)
    80002fb8:	00813023          	sd	s0,0(sp)
    80002fbc:	01010413          	addi	s0,sp,16
    time_sleep(time);
    80002fc0:	ffffe097          	auipc	ra,0xffffe
    80002fc4:	374080e7          	jalr	884(ra) # 80001334 <_Z10time_sleepm>
}
    80002fc8:	00000513          	li	a0,0
    80002fcc:	00813083          	ld	ra,8(sp)
    80002fd0:	00013403          	ld	s0,0(sp)
    80002fd4:	01010113          	addi	sp,sp,16
    80002fd8:	00008067          	ret

0000000080002fdc <_ZN9SemaphoreC1Ej>:
Semaphore::Semaphore(unsigned int init) {
    80002fdc:	ff010113          	addi	sp,sp,-16
    80002fe0:	00113423          	sd	ra,8(sp)
    80002fe4:	00813023          	sd	s0,0(sp)
    80002fe8:	01010413          	addi	s0,sp,16
    80002fec:	00007797          	auipc	a5,0x7
    80002ff0:	f1c78793          	addi	a5,a5,-228 # 80009f08 <_ZTV9Semaphore+0x10>
    80002ff4:	00f53023          	sd	a5,0(a0)
    sem_open(&myHandle, init);
    80002ff8:	00850513          	addi	a0,a0,8
    80002ffc:	ffffe097          	auipc	ra,0xffffe
    80003000:	240080e7          	jalr	576(ra) # 8000123c <_Z8sem_openPP3SEMj>
}
    80003004:	00813083          	ld	ra,8(sp)
    80003008:	00013403          	ld	s0,0(sp)
    8000300c:	01010113          	addi	sp,sp,16
    80003010:	00008067          	ret

0000000080003014 <_ZN9Semaphore4waitEv>:

int Semaphore::wait() {
    80003014:	ff010113          	addi	sp,sp,-16
    80003018:	00113423          	sd	ra,8(sp)
    8000301c:	00813023          	sd	s0,0(sp)
    80003020:	01010413          	addi	s0,sp,16
    return sem_wait(myHandle);
    80003024:	00853503          	ld	a0,8(a0)
    80003028:	ffffe097          	auipc	ra,0xffffe
    8000302c:	294080e7          	jalr	660(ra) # 800012bc <_Z8sem_waitP3SEM>
}
    80003030:	00813083          	ld	ra,8(sp)
    80003034:	00013403          	ld	s0,0(sp)
    80003038:	01010113          	addi	sp,sp,16
    8000303c:	00008067          	ret

0000000080003040 <_ZN9Semaphore6signalEv>:

int Semaphore::signal() {
    80003040:	ff010113          	addi	sp,sp,-16
    80003044:	00113423          	sd	ra,8(sp)
    80003048:	00813023          	sd	s0,0(sp)
    8000304c:	01010413          	addi	s0,sp,16
    return sem_signal(myHandle);
    80003050:	00853503          	ld	a0,8(a0)
    80003054:	ffffe097          	auipc	ra,0xffffe
    80003058:	2a4080e7          	jalr	676(ra) # 800012f8 <_Z10sem_signalP3SEM>
}
    8000305c:	00813083          	ld	ra,8(sp)
    80003060:	00013403          	ld	s0,0(sp)
    80003064:	01010113          	addi	sp,sp,16
    80003068:	00008067          	ret

000000008000306c <_ZN7Console4getcEv>:

char Console::getc() {
    8000306c:	ff010113          	addi	sp,sp,-16
    80003070:	00813423          	sd	s0,8(sp)
    80003074:	01010413          	addi	s0,sp,16
    uint8 number = 41;
    __asm__ volatile("mv a0, %[number]" : : [number] "r" (number));
    80003078:	02900793          	li	a5,41
    8000307c:	00078513          	mv	a0,a5
    __asm__ volatile("ecall");
    80003080:	00000073          	ecall
    char res;
    __asm__ volatile("mv %[res], a0" : [res] "=r" (res));
    80003084:	00050513          	mv	a0,a0
    return res;
}
    80003088:	0ff57513          	andi	a0,a0,255
    8000308c:	00813403          	ld	s0,8(sp)
    80003090:	01010113          	addi	sp,sp,16
    80003094:	00008067          	ret

0000000080003098 <_ZN7Console4putcEc>:

void Console::putc(char c) {
    80003098:	ff010113          	addi	sp,sp,-16
    8000309c:	00813423          	sd	s0,8(sp)
    800030a0:	01010413          	addi	s0,sp,16
    uint8 number = 42;
    __asm__ volatile("mv a1, a0");
    800030a4:	00050593          	mv	a1,a0
    __asm__ volatile("mv a0, %[number]" : : [number] "r" (number));
    800030a8:	02a00793          	li	a5,42
    800030ac:	00078513          	mv	a0,a5
    __asm__ volatile("ecall");
    800030b0:	00000073          	ecall
    800030b4:	00813403          	ld	s0,8(sp)
    800030b8:	01010113          	addi	sp,sp,16
    800030bc:	00008067          	ret

00000000800030c0 <_ZN8ksyscall9mem_allocEv>:
            ksyscall::putc();
            break;
    }
}

void ksyscall::mem_alloc() {
    800030c0:	ff010113          	addi	sp,sp,-16
    800030c4:	00113423          	sd	ra,8(sp)
    800030c8:	00813023          	sd	s0,0(sp)
    800030cc:	01010413          	addi	s0,sp,16
    size_t size_a;
    __asm__ volatile("mv %[size], a1" : [size] "=r"(size_a));
    800030d0:	00058513          	mv	a0,a1
    uint64 res = (uint64) MemoryAllocator::sys_mem_alloc(size_a);
    800030d4:	00001097          	auipc	ra,0x1
    800030d8:	e84080e7          	jalr	-380(ra) # 80003f58 <_ZN15MemoryAllocator13sys_mem_allocEm>
    __asm__ volatile("mv a0, %[res]" : : [res] "r" (res));
    800030dc:	00050513          	mv	a0,a0
    __asm__ volatile("sd a0, 10*8(%[fp])" : : [fp] "r" (ksyscall::fp));
    800030e0:	00007797          	auipc	a5,0x7
    800030e4:	0107b783          	ld	a5,16(a5) # 8000a0f0 <_ZN8ksyscall2fpE>
    800030e8:	04a7b823          	sd	a0,80(a5)
}
    800030ec:	00813083          	ld	ra,8(sp)
    800030f0:	00013403          	ld	s0,0(sp)
    800030f4:	01010113          	addi	sp,sp,16
    800030f8:	00008067          	ret

00000000800030fc <_ZN8ksyscall8mem_freeEv>:

void ksyscall::mem_free() {
    800030fc:	ff010113          	addi	sp,sp,-16
    80003100:	00113423          	sd	ra,8(sp)
    80003104:	00813023          	sd	s0,0(sp)
    80003108:	01010413          	addi	s0,sp,16
    void *addr;
    __asm__ volatile("mv %[addr], a1" : [addr] "=r"(addr));
    8000310c:	00058513          	mv	a0,a1
    uint64 res = (uint64) MemoryAllocator::sys_mem_free(addr);
    80003110:	00001097          	auipc	ra,0x1
    80003114:	f74080e7          	jalr	-140(ra) # 80004084 <_ZN15MemoryAllocator12sys_mem_freeEPv>
    __asm__ volatile("mv a0, %[res]" : : [res] "r" (res));
    80003118:	00050513          	mv	a0,a0
    __asm__ volatile("sd a0, 10*8(%[fp])" : : [fp] "r" (ksyscall::fp));
    8000311c:	00007797          	auipc	a5,0x7
    80003120:	fd47b783          	ld	a5,-44(a5) # 8000a0f0 <_ZN8ksyscall2fpE>
    80003124:	04a7b823          	sd	a0,80(a5)
}
    80003128:	00813083          	ld	ra,8(sp)
    8000312c:	00013403          	ld	s0,0(sp)
    80003130:	01010113          	addi	sp,sp,16
    80003134:	00008067          	ret

0000000080003138 <_ZN8ksyscall13thread_createEv>:

void ksyscall::thread_create() {
    80003138:	ff010113          	addi	sp,sp,-16
    8000313c:	00113423          	sd	ra,8(sp)
    80003140:	00813023          	sd	s0,0(sp)
    80003144:	01010413          	addi	s0,sp,16
    PCB* new_handle;
    void (*start_r)(void *);
    void *arg;
    __asm__ volatile("mv %[start_r], a1" : [start_r] "=r"(start_r));
    80003148:	00058513          	mv	a0,a1
    __asm__ volatile("mv %[arg], a2" : [arg] "=r"(arg));
    8000314c:	00060593          	mv	a1,a2
    new_handle = PCB::createThread(start_r, arg);
    80003150:	ffffe097          	auipc	ra,0xffffe
    80003154:	3a0080e7          	jalr	928(ra) # 800014f0 <_ZN3PCB12createThreadEPFvPvES0_>
    __asm__ volatile("mv a0, %[res]" : : [res] "r" (new_handle));
    80003158:	00050513          	mv	a0,a0
    __asm__ volatile("sd a0, 13*8(%[fp])" : : [fp] "r" (ksyscall::fp));
    8000315c:	00007797          	auipc	a5,0x7
    80003160:	f947b783          	ld	a5,-108(a5) # 8000a0f0 <_ZN8ksyscall2fpE>
    80003164:	06a7b423          	sd	a0,104(a5)
}
    80003168:	00813083          	ld	ra,8(sp)
    8000316c:	00013403          	ld	s0,0(sp)
    80003170:	01010113          	addi	sp,sp,16
    80003174:	00008067          	ret

0000000080003178 <_ZN8ksyscall11thread_exitEv>:

void ksyscall::thread_exit() {
    80003178:	ff010113          	addi	sp,sp,-16
    8000317c:	00113423          	sd	ra,8(sp)
    80003180:	00813023          	sd	s0,0(sp)
    80003184:	01010413          	addi	s0,sp,16
    PCB::exitThread();
    80003188:	ffffe097          	auipc	ra,0xffffe
    8000318c:	524080e7          	jalr	1316(ra) # 800016ac <_ZN3PCB10exitThreadEv>
}
    80003190:	00813083          	ld	ra,8(sp)
    80003194:	00013403          	ld	s0,0(sp)
    80003198:	01010113          	addi	sp,sp,16
    8000319c:	00008067          	ret

00000000800031a0 <_ZN8ksyscall15thread_dispatchEv>:

void ksyscall::thread_dispatch() {
    800031a0:	ff010113          	addi	sp,sp,-16
    800031a4:	00113423          	sd	ra,8(sp)
    800031a8:	00813023          	sd	s0,0(sp)
    800031ac:	01010413          	addi	s0,sp,16
    PCB::timeSliceCounter = 0;
    800031b0:	00007797          	auipc	a5,0x7
    800031b4:	df07b783          	ld	a5,-528(a5) # 80009fa0 <_GLOBAL_OFFSET_TABLE_+0x70>
    800031b8:	0007b023          	sd	zero,0(a5)
    PCB::dispatch();
    800031bc:	ffffe097          	auipc	ra,0xffffe
    800031c0:	47c080e7          	jalr	1148(ra) # 80001638 <_ZN3PCB8dispatchEv>
}
    800031c4:	00813083          	ld	ra,8(sp)
    800031c8:	00013403          	ld	s0,0(sp)
    800031cc:	01010113          	addi	sp,sp,16
    800031d0:	00008067          	ret

00000000800031d4 <_ZN8ksyscall8sem_openEv>:

void ksyscall::sem_open() {
    800031d4:	ff010113          	addi	sp,sp,-16
    800031d8:	00113423          	sd	ra,8(sp)
    800031dc:	00813023          	sd	s0,0(sp)
    800031e0:	01010413          	addi	s0,sp,16
    SEM* new_handle;
    int init;
    __asm__ volatile("mv %[init], a1" : [init] "=r" (init));
    800031e4:	00058513          	mv	a0,a1
    new_handle = SEM::createSEM(init);
    800031e8:	0005051b          	sext.w	a0,a0
    800031ec:	00002097          	auipc	ra,0x2
    800031f0:	010080e7          	jalr	16(ra) # 800051fc <_ZN3SEM9createSEMEi>
    __asm__ volatile("mv a0, %[res]" : : [res] "r" (new_handle));
    800031f4:	00050513          	mv	a0,a0
    __asm__ volatile("sd a0, 13*8(%[fp])" : : [fp] "r" (ksyscall::fp));
    800031f8:	00007797          	auipc	a5,0x7
    800031fc:	ef87b783          	ld	a5,-264(a5) # 8000a0f0 <_ZN8ksyscall2fpE>
    80003200:	06a7b423          	sd	a0,104(a5)
}
    80003204:	00813083          	ld	ra,8(sp)
    80003208:	00013403          	ld	s0,0(sp)
    8000320c:	01010113          	addi	sp,sp,16
    80003210:	00008067          	ret

0000000080003214 <_ZN8ksyscall9sem_closeEv>:

void ksyscall::sem_close() {
    80003214:	fe010113          	addi	sp,sp,-32
    80003218:	00113c23          	sd	ra,24(sp)
    8000321c:	00813823          	sd	s0,16(sp)
    80003220:	00913423          	sd	s1,8(sp)
    80003224:	01213023          	sd	s2,0(sp)
    80003228:	02010413          	addi	s0,sp,32
    SEM* id;
    __asm__ volatile("mv %[id], a1" : [id] "=r" (id));
    8000322c:	00058913          	mv	s2,a1
    int res = id->close();
    80003230:	00090513          	mv	a0,s2
    80003234:	00002097          	auipc	ra,0x2
    80003238:	148080e7          	jalr	328(ra) # 8000537c <_ZN3SEM5closeEv>
    8000323c:	00050493          	mv	s1,a0
    SEM::freeObject(id);
    80003240:	00090513          	mv	a0,s2
    80003244:	00002097          	auipc	ra,0x2
    80003248:	18c080e7          	jalr	396(ra) # 800053d0 <_ZN3SEM10freeObjectEPS_>
    __asm__ volatile("mv a0, %[res]" : : [res] "r" (res));
    8000324c:	00048513          	mv	a0,s1
    __asm__ volatile("sd a0, 10*8(%[fp])" : : [fp] "r" (ksyscall::fp));
    80003250:	00007797          	auipc	a5,0x7
    80003254:	ea07b783          	ld	a5,-352(a5) # 8000a0f0 <_ZN8ksyscall2fpE>
    80003258:	04a7b823          	sd	a0,80(a5)
}
    8000325c:	01813083          	ld	ra,24(sp)
    80003260:	01013403          	ld	s0,16(sp)
    80003264:	00813483          	ld	s1,8(sp)
    80003268:	00013903          	ld	s2,0(sp)
    8000326c:	02010113          	addi	sp,sp,32
    80003270:	00008067          	ret

0000000080003274 <_ZN8ksyscall8sem_waitEv>:

void ksyscall::sem_wait() {
    80003274:	ff010113          	addi	sp,sp,-16
    80003278:	00113423          	sd	ra,8(sp)
    8000327c:	00813023          	sd	s0,0(sp)
    80003280:	01010413          	addi	s0,sp,16
    SEM* id;
    __asm__ volatile("mv %[id], a1" : [id] "=r" (id));
    80003284:	00058513          	mv	a0,a1
    int res = id->wait();
    80003288:	00002097          	auipc	ra,0x2
    8000328c:	ff8080e7          	jalr	-8(ra) # 80005280 <_ZN3SEM4waitEv>
    __asm__ volatile("mv a0, %[res]" : : [res] "r" (res));
    80003290:	00050513          	mv	a0,a0
    __asm__ volatile("sd a0, 10*8(%[fp])" : : [fp] "r" (ksyscall::fp));
    80003294:	00007797          	auipc	a5,0x7
    80003298:	e5c7b783          	ld	a5,-420(a5) # 8000a0f0 <_ZN8ksyscall2fpE>
    8000329c:	04a7b823          	sd	a0,80(a5)
}
    800032a0:	00813083          	ld	ra,8(sp)
    800032a4:	00013403          	ld	s0,0(sp)
    800032a8:	01010113          	addi	sp,sp,16
    800032ac:	00008067          	ret

00000000800032b0 <_ZN8ksyscall10sem_signalEv>:

void ksyscall::sem_signal() {
    800032b0:	ff010113          	addi	sp,sp,-16
    800032b4:	00113423          	sd	ra,8(sp)
    800032b8:	00813023          	sd	s0,0(sp)
    800032bc:	01010413          	addi	s0,sp,16
    SEM* id;
    __asm__ volatile("mv %[id], a1" : [id] "=r" (id));
    800032c0:	00058513          	mv	a0,a1
    int res = id->signal();
    800032c4:	00002097          	auipc	ra,0x2
    800032c8:	054080e7          	jalr	84(ra) # 80005318 <_ZN3SEM6signalEv>
    __asm__ volatile("mv a0, %[res]" : : [res] "r" (res));
    800032cc:	00050513          	mv	a0,a0
    __asm__ volatile("sd a0, 10*8(%[fp])" : : [fp] "r" (ksyscall::fp));
    800032d0:	00007797          	auipc	a5,0x7
    800032d4:	e207b783          	ld	a5,-480(a5) # 8000a0f0 <_ZN8ksyscall2fpE>
    800032d8:	04a7b823          	sd	a0,80(a5)
}
    800032dc:	00813083          	ld	ra,8(sp)
    800032e0:	00013403          	ld	s0,0(sp)
    800032e4:	01010113          	addi	sp,sp,16
    800032e8:	00008067          	ret

00000000800032ec <_ZN8ksyscall12thread_sleepEv>:

void ksyscall::thread_sleep() {
    800032ec:	ff010113          	addi	sp,sp,-16
    800032f0:	00113423          	sd	ra,8(sp)
    800032f4:	00813023          	sd	s0,0(sp)
    800032f8:	01010413          	addi	s0,sp,16
    time_t time;
    __asm__ volatile("mv %[time], a1" : [time] "=r" (time));
    800032fc:	00058513          	mv	a0,a1
    PCB::addToSleepQ(time);
    80003300:	ffffe097          	auipc	ra,0xffffe
    80003304:	3f4080e7          	jalr	1012(ra) # 800016f4 <_ZN3PCB11addToSleepQEm>
}
    80003308:	00813083          	ld	ra,8(sp)
    8000330c:	00013403          	ld	s0,0(sp)
    80003310:	01010113          	addi	sp,sp,16
    80003314:	00008067          	ret

0000000080003318 <_ZN8ksyscall4getcEv>:

void ksyscall::getc() {
    80003318:	ff010113          	addi	sp,sp,-16
    8000331c:	00113423          	sd	ra,8(sp)
    80003320:	00813023          	sd	s0,0(sp)
    80003324:	01010413          	addi	s0,sp,16
    void operator=(ConsoleHandler const &) = delete;

    static ConsoleHandler *createConsoleHandler();

    static ConsoleHandler *getInstance(){
        if(instance == nullptr){
    80003328:	00007797          	auipc	a5,0x7
    8000332c:	c307b783          	ld	a5,-976(a5) # 80009f58 <_GLOBAL_OFFSET_TABLE_+0x28>
    80003330:	0007b783          	ld	a5,0(a5)
    80003334:	02078c63          	beqz	a5,8000336c <_ZN8ksyscall4getcEv+0x54>
    char res = ConsoleHandler::getInstance()->sys_getc();
    80003338:	00007797          	auipc	a5,0x7
    8000333c:	c207b783          	ld	a5,-992(a5) # 80009f58 <_GLOBAL_OFFSET_TABLE_+0x28>
    80003340:	0007b503          	ld	a0,0(a5)
    80003344:	00001097          	auipc	ra,0x1
    80003348:	e60080e7          	jalr	-416(ra) # 800041a4 <_ZN14ConsoleHandler8sys_getcEv>
    __asm__ volatile("mv a0, %[res]" : : [res] "r" (res));
    8000334c:	00050513          	mv	a0,a0
    __asm__ volatile("sd a0, 10*8(%[fp])" : : [fp] "r" (ksyscall::fp));
    80003350:	00007797          	auipc	a5,0x7
    80003354:	da07b783          	ld	a5,-608(a5) # 8000a0f0 <_ZN8ksyscall2fpE>
    80003358:	04a7b823          	sd	a0,80(a5)
}
    8000335c:	00813083          	ld	ra,8(sp)
    80003360:	00013403          	ld	s0,0(sp)
    80003364:	01010113          	addi	sp,sp,16
    80003368:	00008067          	ret
            instance = ConsoleHandler::createConsoleHandler();
    8000336c:	00001097          	auipc	ra,0x1
    80003370:	ddc080e7          	jalr	-548(ra) # 80004148 <_ZN14ConsoleHandler20createConsoleHandlerEv>
    80003374:	00007797          	auipc	a5,0x7
    80003378:	be47b783          	ld	a5,-1052(a5) # 80009f58 <_GLOBAL_OFFSET_TABLE_+0x28>
    8000337c:	00a7b023          	sd	a0,0(a5)
    80003380:	fb9ff06f          	j	80003338 <_ZN8ksyscall4getcEv+0x20>

0000000080003384 <_ZN8ksyscall4putcEv>:

void ksyscall::putc() {
    80003384:	fe010113          	addi	sp,sp,-32
    80003388:	00113c23          	sd	ra,24(sp)
    8000338c:	00813823          	sd	s0,16(sp)
    80003390:	00913423          	sd	s1,8(sp)
    80003394:	02010413          	addi	s0,sp,32
    char data;
    __asm__ volatile("mv %[data], a1" : [data] "=r"(data));
    80003398:	00058493          	mv	s1,a1
    8000339c:	0ff4f493          	andi	s1,s1,255
        if(instance == nullptr){
    800033a0:	00007797          	auipc	a5,0x7
    800033a4:	bb87b783          	ld	a5,-1096(a5) # 80009f58 <_GLOBAL_OFFSET_TABLE_+0x28>
    800033a8:	0007b783          	ld	a5,0(a5)
    800033ac:	02078863          	beqz	a5,800033dc <_ZN8ksyscall4putcEv+0x58>
    ConsoleHandler::getInstance()->sys_putc(data);
    800033b0:	00048593          	mv	a1,s1
    800033b4:	00007797          	auipc	a5,0x7
    800033b8:	ba47b783          	ld	a5,-1116(a5) # 80009f58 <_GLOBAL_OFFSET_TABLE_+0x28>
    800033bc:	0007b503          	ld	a0,0(a5)
    800033c0:	00001097          	auipc	ra,0x1
    800033c4:	e40080e7          	jalr	-448(ra) # 80004200 <_ZN14ConsoleHandler8sys_putcEc>
}
    800033c8:	01813083          	ld	ra,24(sp)
    800033cc:	01013403          	ld	s0,16(sp)
    800033d0:	00813483          	ld	s1,8(sp)
    800033d4:	02010113          	addi	sp,sp,32
    800033d8:	00008067          	ret
            instance = ConsoleHandler::createConsoleHandler();
    800033dc:	00001097          	auipc	ra,0x1
    800033e0:	d6c080e7          	jalr	-660(ra) # 80004148 <_ZN14ConsoleHandler20createConsoleHandlerEv>
    800033e4:	00007797          	auipc	a5,0x7
    800033e8:	b747b783          	ld	a5,-1164(a5) # 80009f58 <_GLOBAL_OFFSET_TABLE_+0x28>
    800033ec:	00a7b023          	sd	a0,0(a5)
    800033f0:	fc1ff06f          	j	800033b0 <_ZN8ksyscall4putcEv+0x2c>

00000000800033f4 <_ZN8ksyscall13hanldeSyscallEt>:
    switch(number) {
    800033f4:	0005071b          	sext.w	a4,a0
    800033f8:	02a00793          	li	a5,42
    800033fc:	0ce7e663          	bltu	a5,a4,800034c8 <_ZN8ksyscall13hanldeSyscallEt+0xd4>
void ksyscall::hanldeSyscall(unsigned short number){
    80003400:	ff010113          	addi	sp,sp,-16
    80003404:	00113423          	sd	ra,8(sp)
    80003408:	00813023          	sd	s0,0(sp)
    8000340c:	01010413          	addi	s0,sp,16
    80003410:	00251513          	slli	a0,a0,0x2
    80003414:	00005717          	auipc	a4,0x5
    80003418:	cb870713          	addi	a4,a4,-840 # 800080cc <CONSOLE_STATUS+0xbc>
    8000341c:	00e50533          	add	a0,a0,a4
    80003420:	00052783          	lw	a5,0(a0)
    80003424:	00e787b3          	add	a5,a5,a4
    80003428:	00078067          	jr	a5
            ksyscall::mem_alloc();
    8000342c:	00000097          	auipc	ra,0x0
    80003430:	c94080e7          	jalr	-876(ra) # 800030c0 <_ZN8ksyscall9mem_allocEv>
}
    80003434:	00813083          	ld	ra,8(sp)
    80003438:	00013403          	ld	s0,0(sp)
    8000343c:	01010113          	addi	sp,sp,16
    80003440:	00008067          	ret
            ksyscall::mem_free();
    80003444:	00000097          	auipc	ra,0x0
    80003448:	cb8080e7          	jalr	-840(ra) # 800030fc <_ZN8ksyscall8mem_freeEv>
            break;
    8000344c:	fe9ff06f          	j	80003434 <_ZN8ksyscall13hanldeSyscallEt+0x40>
            ksyscall::thread_create();
    80003450:	00000097          	auipc	ra,0x0
    80003454:	ce8080e7          	jalr	-792(ra) # 80003138 <_ZN8ksyscall13thread_createEv>
            break;
    80003458:	fddff06f          	j	80003434 <_ZN8ksyscall13hanldeSyscallEt+0x40>
            ksyscall::thread_exit();
    8000345c:	00000097          	auipc	ra,0x0
    80003460:	d1c080e7          	jalr	-740(ra) # 80003178 <_ZN8ksyscall11thread_exitEv>
            break;
    80003464:	fd1ff06f          	j	80003434 <_ZN8ksyscall13hanldeSyscallEt+0x40>
            ksyscall::thread_dispatch();
    80003468:	00000097          	auipc	ra,0x0
    8000346c:	d38080e7          	jalr	-712(ra) # 800031a0 <_ZN8ksyscall15thread_dispatchEv>
            break;
    80003470:	fc5ff06f          	j	80003434 <_ZN8ksyscall13hanldeSyscallEt+0x40>
            ksyscall::sem_open();
    80003474:	00000097          	auipc	ra,0x0
    80003478:	d60080e7          	jalr	-672(ra) # 800031d4 <_ZN8ksyscall8sem_openEv>
            break;
    8000347c:	fb9ff06f          	j	80003434 <_ZN8ksyscall13hanldeSyscallEt+0x40>
            ksyscall::sem_close();
    80003480:	00000097          	auipc	ra,0x0
    80003484:	d94080e7          	jalr	-620(ra) # 80003214 <_ZN8ksyscall9sem_closeEv>
            break;
    80003488:	fadff06f          	j	80003434 <_ZN8ksyscall13hanldeSyscallEt+0x40>
            ksyscall::sem_wait();
    8000348c:	00000097          	auipc	ra,0x0
    80003490:	de8080e7          	jalr	-536(ra) # 80003274 <_ZN8ksyscall8sem_waitEv>
            break;
    80003494:	fa1ff06f          	j	80003434 <_ZN8ksyscall13hanldeSyscallEt+0x40>
            ksyscall::sem_signal();
    80003498:	00000097          	auipc	ra,0x0
    8000349c:	e18080e7          	jalr	-488(ra) # 800032b0 <_ZN8ksyscall10sem_signalEv>
            break;
    800034a0:	f95ff06f          	j	80003434 <_ZN8ksyscall13hanldeSyscallEt+0x40>
            ksyscall::thread_sleep();
    800034a4:	00000097          	auipc	ra,0x0
    800034a8:	e48080e7          	jalr	-440(ra) # 800032ec <_ZN8ksyscall12thread_sleepEv>
            break;
    800034ac:	f89ff06f          	j	80003434 <_ZN8ksyscall13hanldeSyscallEt+0x40>
            ksyscall::getc();
    800034b0:	00000097          	auipc	ra,0x0
    800034b4:	e68080e7          	jalr	-408(ra) # 80003318 <_ZN8ksyscall4getcEv>
            break;
    800034b8:	f7dff06f          	j	80003434 <_ZN8ksyscall13hanldeSyscallEt+0x40>
            ksyscall::putc();
    800034bc:	00000097          	auipc	ra,0x0
    800034c0:	ec8080e7          	jalr	-312(ra) # 80003384 <_ZN8ksyscall4putcEv>
}
    800034c4:	f71ff06f          	j	80003434 <_ZN8ksyscall13hanldeSyscallEt+0x40>
    800034c8:	00008067          	ret

00000000800034cc <_Z18kernel_printStringPKc>:
#include "../h/KernelPrint.hpp"

void kernel_printString(char const *string)
{
    800034cc:	fe010113          	addi	sp,sp,-32
    800034d0:	00113c23          	sd	ra,24(sp)
    800034d4:	00813823          	sd	s0,16(sp)
    800034d8:	00913423          	sd	s1,8(sp)
    800034dc:	02010413          	addi	s0,sp,32
    800034e0:	00050493          	mv	s1,a0
    800034e4:	0200006f          	j	80003504 <_Z18kernel_printStringPKc+0x38>
    while (*string != '\0')
    {
        ConsoleHandler::getInstance()->sys_putc(*string);
    800034e8:	0004c583          	lbu	a1,0(s1)
    800034ec:	00007797          	auipc	a5,0x7
    800034f0:	a6c7b783          	ld	a5,-1428(a5) # 80009f58 <_GLOBAL_OFFSET_TABLE_+0x28>
    800034f4:	0007b503          	ld	a0,0(a5)
    800034f8:	00001097          	auipc	ra,0x1
    800034fc:	d08080e7          	jalr	-760(ra) # 80004200 <_ZN14ConsoleHandler8sys_putcEc>
        string++;
    80003500:	00148493          	addi	s1,s1,1
    while (*string != '\0')
    80003504:	0004c783          	lbu	a5,0(s1)
    80003508:	02078663          	beqz	a5,80003534 <_Z18kernel_printStringPKc+0x68>
    void operator=(ConsoleHandler const &) = delete;

    static ConsoleHandler *createConsoleHandler();

    static ConsoleHandler *getInstance(){
        if(instance == nullptr){
    8000350c:	00007797          	auipc	a5,0x7
    80003510:	a4c7b783          	ld	a5,-1460(a5) # 80009f58 <_GLOBAL_OFFSET_TABLE_+0x28>
    80003514:	0007b783          	ld	a5,0(a5)
    80003518:	fc0798e3          	bnez	a5,800034e8 <_Z18kernel_printStringPKc+0x1c>
            instance = ConsoleHandler::createConsoleHandler();
    8000351c:	00001097          	auipc	ra,0x1
    80003520:	c2c080e7          	jalr	-980(ra) # 80004148 <_ZN14ConsoleHandler20createConsoleHandlerEv>
    80003524:	00007797          	auipc	a5,0x7
    80003528:	a347b783          	ld	a5,-1484(a5) # 80009f58 <_GLOBAL_OFFSET_TABLE_+0x28>
    8000352c:	00a7b023          	sd	a0,0(a5)
    80003530:	fb9ff06f          	j	800034e8 <_Z18kernel_printStringPKc+0x1c>
    }
}
    80003534:	01813083          	ld	ra,24(sp)
    80003538:	01013403          	ld	s0,16(sp)
    8000353c:	00813483          	ld	s1,8(sp)
    80003540:	02010113          	addi	sp,sp,32
    80003544:	00008067          	ret

0000000080003548 <_Z15kernel_printIntiii>:

char k_digits[] = "0123456789ABCDEF";
void kernel_printInt(int xx, int base, int sgn)
{
    80003548:	fd010113          	addi	sp,sp,-48
    8000354c:	02113423          	sd	ra,40(sp)
    80003550:	02813023          	sd	s0,32(sp)
    80003554:	00913c23          	sd	s1,24(sp)
    80003558:	03010413          	addi	s0,sp,48
    char buf[16];
    int i, neg;
    uint x;

    neg = 0;
    if(sgn && xx < 0){
    8000355c:	00060463          	beqz	a2,80003564 <_Z15kernel_printIntiii+0x1c>
    80003560:	06054663          	bltz	a0,800035cc <_Z15kernel_printIntiii+0x84>
        neg = 1;
        x = -xx;
    } else {
        x = xx;
    80003564:	0005051b          	sext.w	a0,a0
    neg = 0;
    80003568:	00000813          	li	a6,0
    }

    i = 0;
    8000356c:	00000493          	li	s1,0
    do{
        buf[i++] = k_digits[x % base];
    80003570:	0005879b          	sext.w	a5,a1
    80003574:	02b5773b          	remuw	a4,a0,a1
    80003578:	00048613          	mv	a2,s1
    8000357c:	0014849b          	addiw	s1,s1,1
    80003580:	02071693          	slli	a3,a4,0x20
    80003584:	0206d693          	srli	a3,a3,0x20
    80003588:	00007717          	auipc	a4,0x7
    8000358c:	99070713          	addi	a4,a4,-1648 # 80009f18 <k_digits>
    80003590:	00d70733          	add	a4,a4,a3
    80003594:	00074683          	lbu	a3,0(a4)
    80003598:	fe040713          	addi	a4,s0,-32
    8000359c:	00c70733          	add	a4,a4,a2
    800035a0:	fed70823          	sb	a3,-16(a4)
    }while((x /= base) != 0);
    800035a4:	0005071b          	sext.w	a4,a0
    800035a8:	02b5553b          	divuw	a0,a0,a1
    800035ac:	fcf772e3          	bgeu	a4,a5,80003570 <_Z15kernel_printIntiii+0x28>
    if(neg)
    800035b0:	04080463          	beqz	a6,800035f8 <_Z15kernel_printIntiii+0xb0>
        buf[i++] = '-';
    800035b4:	fe040793          	addi	a5,s0,-32
    800035b8:	009784b3          	add	s1,a5,s1
    800035bc:	02d00793          	li	a5,45
    800035c0:	fef48823          	sb	a5,-16(s1)
    800035c4:	0026049b          	addiw	s1,a2,2
    800035c8:	0300006f          	j	800035f8 <_Z15kernel_printIntiii+0xb0>
        x = -xx;
    800035cc:	40a0053b          	negw	a0,a0
        neg = 1;
    800035d0:	00100813          	li	a6,1
        x = -xx;
    800035d4:	f99ff06f          	j	8000356c <_Z15kernel_printIntiii+0x24>

    while(--i >= 0)
        ConsoleHandler::getInstance()->sys_putc(buf[i]);
    800035d8:	fe040793          	addi	a5,s0,-32
    800035dc:	009787b3          	add	a5,a5,s1
    800035e0:	ff07c583          	lbu	a1,-16(a5)
    800035e4:	00007797          	auipc	a5,0x7
    800035e8:	9747b783          	ld	a5,-1676(a5) # 80009f58 <_GLOBAL_OFFSET_TABLE_+0x28>
    800035ec:	0007b503          	ld	a0,0(a5)
    800035f0:	00001097          	auipc	ra,0x1
    800035f4:	c10080e7          	jalr	-1008(ra) # 80004200 <_ZN14ConsoleHandler8sys_putcEc>
    while(--i >= 0)
    800035f8:	fff4849b          	addiw	s1,s1,-1
    800035fc:	0204c663          	bltz	s1,80003628 <_Z15kernel_printIntiii+0xe0>
        if(instance == nullptr){
    80003600:	00007797          	auipc	a5,0x7
    80003604:	9587b783          	ld	a5,-1704(a5) # 80009f58 <_GLOBAL_OFFSET_TABLE_+0x28>
    80003608:	0007b783          	ld	a5,0(a5)
    8000360c:	fc0796e3          	bnez	a5,800035d8 <_Z15kernel_printIntiii+0x90>
            instance = ConsoleHandler::createConsoleHandler();
    80003610:	00001097          	auipc	ra,0x1
    80003614:	b38080e7          	jalr	-1224(ra) # 80004148 <_ZN14ConsoleHandler20createConsoleHandlerEv>
    80003618:	00007797          	auipc	a5,0x7
    8000361c:	9407b783          	ld	a5,-1728(a5) # 80009f58 <_GLOBAL_OFFSET_TABLE_+0x28>
    80003620:	00a7b023          	sd	a0,0(a5)
    80003624:	fb5ff06f          	j	800035d8 <_Z15kernel_printIntiii+0x90>

    80003628:	02813083          	ld	ra,40(sp)
    8000362c:	02013403          	ld	s0,32(sp)
    80003630:	01813483          	ld	s1,24(sp)
    80003634:	03010113          	addi	sp,sp,48
    80003638:	00008067          	ret

000000008000363c <_ZN5Riscv10popSppSpieEv>:
#include "../h/PCB.hpp"
#include "../h/SEM.hpp"
#include "../h/ksyscall.hpp"

void Riscv::popSppSpie()
{
    8000363c:	ff010113          	addi	sp,sp,-16
    80003640:	00813423          	sd	s0,8(sp)
    80003644:	01010413          	addi	s0,sp,16
    if(PCB::running == PCB::main_t || PCB::running == PCB::console_t){ //|| PCB::running == PCB::user_main_t){
    80003648:	00007797          	auipc	a5,0x7
    8000364c:	9987b783          	ld	a5,-1640(a5) # 80009fe0 <_GLOBAL_OFFSET_TABLE_+0xb0>
    80003650:	0007b783          	ld	a5,0(a5)
    80003654:	00007717          	auipc	a4,0x7
    80003658:	95c73703          	ld	a4,-1700(a4) # 80009fb0 <_GLOBAL_OFFSET_TABLE_+0x80>
    8000365c:	00073703          	ld	a4,0(a4)
    80003660:	02e78063          	beq	a5,a4,80003680 <_ZN5Riscv10popSppSpieEv+0x44>
    80003664:	00007717          	auipc	a4,0x7
    80003668:	93473703          	ld	a4,-1740(a4) # 80009f98 <_GLOBAL_OFFSET_TABLE_+0x68>
    8000366c:	00073703          	ld	a4,0(a4)
    80003670:	00e78863          	beq	a5,a4,80003680 <_ZN5Riscv10popSppSpieEv+0x44>
        __asm__ volatile ("csrs sstatus, %[mask]" : : [mask] "r"(BitMaskSstatus::SSTATUS_SPP));
    }else{
        __asm__ volatile ("csrc sstatus, %[mask]" : : [mask] "r"(BitMaskSstatus::SSTATUS_SPP));
    80003674:	10000793          	li	a5,256
    80003678:	1007b073          	csrc	sstatus,a5
    8000367c:	00c0006f          	j	80003688 <_ZN5Riscv10popSppSpieEv+0x4c>
        __asm__ volatile ("csrs sstatus, %[mask]" : : [mask] "r"(BitMaskSstatus::SSTATUS_SPP));
    80003680:	10000793          	li	a5,256
    80003684:	1007a073          	csrs	sstatus,a5
    }
    __asm__ volatile("csrw sepc, ra");
    80003688:	14109073          	csrw	sepc,ra
    __asm__ volatile("sret");
    8000368c:	10200073          	sret
}
    80003690:	00813403          	ld	s0,8(sp)
    80003694:	01010113          	addi	sp,sp,16
    80003698:	00008067          	ret

000000008000369c <_ZN5Riscv20handleSupervisorTrapEt>:

void Riscv::handleSupervisorTrap(unsigned short number) {
    8000369c:	f8010113          	addi	sp,sp,-128
    800036a0:	06113c23          	sd	ra,120(sp)
    800036a4:	06813823          	sd	s0,112(sp)
    800036a8:	08010413          	addi	s0,sp,128
};

inline uint64 Riscv::r_scause()
{
    uint64 volatile scause;
    __asm__ volatile ("csrr %[scause], scause" : [scause] "=r"(scause));
    800036ac:	142027f3          	csrr	a5,scause
    800036b0:	faf43c23          	sd	a5,-72(s0)
    return scause;
    800036b4:	fb843703          	ld	a4,-72(s0)
    uint64 scauseVar = Riscv::r_scause();
    if (scauseVar == USER_ECALL || scauseVar == SYSTEM_ECALL) {
    800036b8:	ff870693          	addi	a3,a4,-8
    800036bc:	00100793          	li	a5,1
    800036c0:	02d7fa63          	bgeu	a5,a3,800036f4 <_ZN5Riscv20handleSupervisorTrapEt+0x58>
        saveFp(ksyscall::fp);
        ksyscall::hanldeSyscall(number);

        Riscv::w_sstatus(sstatus);
        Riscv::w_sepc(sepc);
    }else if(scauseVar == TIMER_INT){
    800036c4:	fff00793          	li	a5,-1
    800036c8:	03f79793          	slli	a5,a5,0x3f
    800036cc:	00178793          	addi	a5,a5,1
    800036d0:	08f70663          	beq	a4,a5,8000375c <_ZN5Riscv20handleSupervisorTrapEt+0xc0>
            PCB::timeSliceCounter = 0;
            PCB::dispatch();
            w_sstatus(sstatus);
            w_sepc(sepc);
        }
    }else if(scauseVar == EXTERNAL_INT){
    800036d4:	fff00793          	li	a5,-1
    800036d8:	03f79793          	slli	a5,a5,0x3f
    800036dc:	00978793          	addi	a5,a5,9
    800036e0:	0ef70e63          	beq	a4,a5,800037dc <_ZN5Riscv20handleSupervisorTrapEt+0x140>
        Riscv::w_sstatus(sstatus);
        Riscv::w_sepc(sepc);
    }else{
        // unexpected trap
    }
    800036e4:	07813083          	ld	ra,120(sp)
    800036e8:	07013403          	ld	s0,112(sp)
    800036ec:	08010113          	addi	sp,sp,128
    800036f0:	00008067          	ret
    __asm__ volatile ("csrs sip, %[mask]" : : [mask] "r"(mask));
}

inline void Riscv::mc_sip(uint64 mask)
{
    __asm__ volatile ("csrc sip, %[mask]" : : [mask] "r"(mask));
    800036f4:	00200793          	li	a5,2
    800036f8:	1447b073          	csrc	sip,a5
    800036fc:	02000793          	li	a5,32
    80003700:	1447b073          	csrc	sip,a5
    __asm__ volatile ("csrr %[sepc], sepc" : [sepc] "=r"(sepc));
    80003704:	141027f3          	csrr	a5,sepc
    80003708:	fcf43423          	sd	a5,-56(s0)
    return sepc;
    8000370c:	fc843783          	ld	a5,-56(s0)
        uint64 volatile sepc = Riscv::r_sepc();
    80003710:	f8f43423          	sd	a5,-120(s0)
}

inline uint64 Riscv::r_sstatus()
{
    uint64 volatile sstatus;
    __asm__ volatile ("csrr %[sstatus], sstatus" : [sstatus] "=r"(sstatus));
    80003714:	100027f3          	csrr	a5,sstatus
    80003718:	fcf43023          	sd	a5,-64(s0)
    return sstatus;
    8000371c:	fc043783          	ld	a5,-64(s0)
        uint64 volatile sstatus = r_sstatus();
    80003720:	f8f43823          	sd	a5,-112(s0)
        sepc += 4;
    80003724:	f8843783          	ld	a5,-120(s0)
    80003728:	00478793          	addi	a5,a5,4
    8000372c:	f8f43423          	sd	a5,-120(s0)
{
    __asm__ volatile ("csrw sstatus, %[sstatus]" : : [sstatus] "r"(sstatus));
}

inline void Riscv::saveFp(uint64 &frame_pointer){
    __asm__ volatile ("mv %[fp], fp" : [fp] "=r" (frame_pointer));
    80003730:	00040713          	mv	a4,s0
    80003734:	00007797          	auipc	a5,0x7
    80003738:	88c7b783          	ld	a5,-1908(a5) # 80009fc0 <_GLOBAL_OFFSET_TABLE_+0x90>
    8000373c:	00e7b023          	sd	a4,0(a5)
        ksyscall::hanldeSyscall(number);
    80003740:	00000097          	auipc	ra,0x0
    80003744:	cb4080e7          	jalr	-844(ra) # 800033f4 <_ZN8ksyscall13hanldeSyscallEt>
        Riscv::w_sstatus(sstatus);
    80003748:	f9043783          	ld	a5,-112(s0)
    __asm__ volatile ("csrw sstatus, %[sstatus]" : : [sstatus] "r"(sstatus));
    8000374c:	10079073          	csrw	sstatus,a5
        Riscv::w_sepc(sepc);
    80003750:	f8843783          	ld	a5,-120(s0)
    __asm__ volatile ("csrw sepc, %[sepc]" : : [sepc] "r"(sepc));
    80003754:	14179073          	csrw	sepc,a5
}
    80003758:	f8dff06f          	j	800036e4 <_ZN5Riscv20handleSupervisorTrapEt+0x48>
    __asm__ volatile ("csrc sip, %[mask]" : : [mask] "r"(mask));
    8000375c:	00200793          	li	a5,2
    80003760:	1447b073          	csrc	sip,a5
        PCB::wakingUp();
    80003764:	ffffe097          	auipc	ra,0xffffe
    80003768:	fe8080e7          	jalr	-24(ra) # 8000174c <_ZN3PCB8wakingUpEv>
        PCB::timeSliceCounter++;
    8000376c:	00007717          	auipc	a4,0x7
    80003770:	83473703          	ld	a4,-1996(a4) # 80009fa0 <_GLOBAL_OFFSET_TABLE_+0x70>
    80003774:	00073783          	ld	a5,0(a4)
    80003778:	00178793          	addi	a5,a5,1
    8000377c:	00f73023          	sd	a5,0(a4)
        if(PCB::timeSliceCounter >= PCB::running->getTimeSlice()){
    80003780:	00007717          	auipc	a4,0x7
    80003784:	86073703          	ld	a4,-1952(a4) # 80009fe0 <_GLOBAL_OFFSET_TABLE_+0xb0>
    80003788:	00073703          	ld	a4,0(a4)

    uint64 getTimeSlice() const { return timeSlice; }
    8000378c:	03073703          	ld	a4,48(a4)
    80003790:	f4e7eae3          	bltu	a5,a4,800036e4 <_ZN5Riscv20handleSupervisorTrapEt+0x48>
    __asm__ volatile ("csrr %[sepc], sepc" : [sepc] "=r"(sepc));
    80003794:	141027f3          	csrr	a5,sepc
    80003798:	fcf43c23          	sd	a5,-40(s0)
    return sepc;
    8000379c:	fd843783          	ld	a5,-40(s0)
            uint64 volatile sepc = r_sepc();
    800037a0:	f8f43c23          	sd	a5,-104(s0)
    __asm__ volatile ("csrr %[sstatus], sstatus" : [sstatus] "=r"(sstatus));
    800037a4:	100027f3          	csrr	a5,sstatus
    800037a8:	fcf43823          	sd	a5,-48(s0)
    return sstatus;
    800037ac:	fd043783          	ld	a5,-48(s0)
            uint64 volatile sstatus = r_sstatus();
    800037b0:	faf43023          	sd	a5,-96(s0)
            PCB::timeSliceCounter = 0;
    800037b4:	00006797          	auipc	a5,0x6
    800037b8:	7ec7b783          	ld	a5,2028(a5) # 80009fa0 <_GLOBAL_OFFSET_TABLE_+0x70>
    800037bc:	0007b023          	sd	zero,0(a5)
            PCB::dispatch();
    800037c0:	ffffe097          	auipc	ra,0xffffe
    800037c4:	e78080e7          	jalr	-392(ra) # 80001638 <_ZN3PCB8dispatchEv>
            w_sstatus(sstatus);
    800037c8:	fa043783          	ld	a5,-96(s0)
    __asm__ volatile ("csrw sstatus, %[sstatus]" : : [sstatus] "r"(sstatus));
    800037cc:	10079073          	csrw	sstatus,a5
            w_sepc(sepc);
    800037d0:	f9843783          	ld	a5,-104(s0)
    __asm__ volatile ("csrw sepc, %[sepc]" : : [sepc] "r"(sepc));
    800037d4:	14179073          	csrw	sepc,a5
}
    800037d8:	f0dff06f          	j	800036e4 <_ZN5Riscv20handleSupervisorTrapEt+0x48>
    __asm__ volatile ("csrr %[sepc], sepc" : [sepc] "=r"(sepc));
    800037dc:	141027f3          	csrr	a5,sepc
    800037e0:	fef43423          	sd	a5,-24(s0)
    return sepc;
    800037e4:	fe843783          	ld	a5,-24(s0)
        uint64 volatile sepc = Riscv::r_sepc();
    800037e8:	faf43423          	sd	a5,-88(s0)
    __asm__ volatile ("csrr %[sstatus], sstatus" : [sstatus] "=r"(sstatus));
    800037ec:	100027f3          	csrr	a5,sstatus
    800037f0:	fef43023          	sd	a5,-32(s0)
    return sstatus;
    800037f4:	fe043783          	ld	a5,-32(s0)
        uint64 volatile sstatus = r_sstatus();
    800037f8:	faf43823          	sd	a5,-80(s0)
        int volatile irq = plic_claim();
    800037fc:	00002097          	auipc	ra,0x2
    80003800:	488080e7          	jalr	1160(ra) # 80005c84 <plic_claim>
    80003804:	f8a42223          	sw	a0,-124(s0)
    __asm__ volatile ("csrc sip, %[mask]" : : [mask] "r"(mask));
    80003808:	20000793          	li	a5,512
    8000380c:	1447b073          	csrc	sip,a5
    80003810:	02000793          	li	a5,32
    80003814:	1447b073          	csrc	sip,a5
        if(irq == 0x0a){
    80003818:	f8442783          	lw	a5,-124(s0)
    8000381c:	0007879b          	sext.w	a5,a5
    80003820:	00a00713          	li	a4,10
    80003824:	02e78463          	beq	a5,a4,8000384c <_ZN5Riscv20handleSupervisorTrapEt+0x1b0>
        plic_complete(irq);
    80003828:	f8442503          	lw	a0,-124(s0)
    8000382c:	0005051b          	sext.w	a0,a0
    80003830:	00002097          	auipc	ra,0x2
    80003834:	48c080e7          	jalr	1164(ra) # 80005cbc <plic_complete>
        Riscv::w_sstatus(sstatus);
    80003838:	fb043783          	ld	a5,-80(s0)
    __asm__ volatile ("csrw sstatus, %[sstatus]" : : [sstatus] "r"(sstatus));
    8000383c:	10079073          	csrw	sstatus,a5
        Riscv::w_sepc(sepc);
    80003840:	fa843783          	ld	a5,-88(s0)
    __asm__ volatile ("csrw sepc, %[sepc]" : : [sepc] "r"(sepc));
    80003844:	14179073          	csrw	sepc,a5
    80003848:	e9dff06f          	j	800036e4 <_ZN5Riscv20handleSupervisorTrapEt+0x48>
            char volatile *status = (char *)CONSOLE_STATUS;
    8000384c:	00006797          	auipc	a5,0x6
    80003850:	7047b783          	ld	a5,1796(a5) # 80009f50 <_GLOBAL_OFFSET_TABLE_+0x20>
    80003854:	0007b783          	ld	a5,0(a5)
            if(*status & CONSOLE_RX_STATUS_BIT){
    80003858:	0007c783          	lbu	a5,0(a5)
    8000385c:	0017f793          	andi	a5,a5,1
    80003860:	fc0784e3          	beqz	a5,80003828 <_ZN5Riscv20handleSupervisorTrapEt+0x18c>
                char volatile r = *(char *)CONSOLE_RX_DATA;
    80003864:	00006797          	auipc	a5,0x6
    80003868:	6e47b783          	ld	a5,1764(a5) # 80009f48 <_GLOBAL_OFFSET_TABLE_+0x18>
    8000386c:	0007b783          	ld	a5,0(a5)
    80003870:	0007c783          	lbu	a5,0(a5)
    80003874:	f8f401a3          	sb	a5,-125(s0)
        if(instance == nullptr){
    80003878:	00006797          	auipc	a5,0x6
    8000387c:	6e07b783          	ld	a5,1760(a5) # 80009f58 <_GLOBAL_OFFSET_TABLE_+0x28>
    80003880:	0007b783          	ld	a5,0(a5)
    80003884:	02078263          	beqz	a5,800038a8 <_ZN5Riscv20handleSupervisorTrapEt+0x20c>
                ConsoleHandler::getInstance()->writeDataInput(r);
    80003888:	f8344583          	lbu	a1,-125(s0)
    8000388c:	0ff5f593          	andi	a1,a1,255
    80003890:	00006797          	auipc	a5,0x6
    80003894:	6c87b783          	ld	a5,1736(a5) # 80009f58 <_GLOBAL_OFFSET_TABLE_+0x28>
    80003898:	0007b503          	ld	a0,0(a5)
    8000389c:	00001097          	auipc	ra,0x1
    800038a0:	938080e7          	jalr	-1736(ra) # 800041d4 <_ZN14ConsoleHandler14writeDataInputEc>
    800038a4:	f85ff06f          	j	80003828 <_ZN5Riscv20handleSupervisorTrapEt+0x18c>
            instance = ConsoleHandler::createConsoleHandler();
    800038a8:	00001097          	auipc	ra,0x1
    800038ac:	8a0080e7          	jalr	-1888(ra) # 80004148 <_ZN14ConsoleHandler20createConsoleHandlerEv>
    800038b0:	00006797          	auipc	a5,0x6
    800038b4:	6a87b783          	ld	a5,1704(a5) # 80009f58 <_GLOBAL_OFFSET_TABLE_+0x28>
    800038b8:	00a7b023          	sd	a0,0(a5)
    800038bc:	fcdff06f          	j	80003888 <_ZN5Riscv20handleSupervisorTrapEt+0x1ec>

00000000800038c0 <_ZN13ConsoleBufferC1Ei>:
#include "../h/ConsoleBuffer.hpp"
#include "../h/SEM.hpp"

ConsoleBuffer::ConsoleBuffer(int _cap) : cap(_cap + 1), head(0), tail(0) {
    800038c0:	fe010113          	addi	sp,sp,-32
    800038c4:	00113c23          	sd	ra,24(sp)
    800038c8:	00813823          	sd	s0,16(sp)
    800038cc:	00913423          	sd	s1,8(sp)
    800038d0:	01213023          	sd	s2,0(sp)
    800038d4:	02010413          	addi	s0,sp,32
    800038d8:	00050493          	mv	s1,a0
    800038dc:	00058913          	mv	s2,a1
    800038e0:	0015851b          	addiw	a0,a1,1
    800038e4:	00a4a023          	sw	a0,0(s1)
    800038e8:	0004a823          	sw	zero,16(s1)
    800038ec:	0004aa23          	sw	zero,20(s1)
    buffer = (char *)MemoryAllocator::sys_mem_alloc(sizeof(char) * cap);
    800038f0:	0005051b          	sext.w	a0,a0
    800038f4:	00000097          	auipc	ra,0x0
    800038f8:	664080e7          	jalr	1636(ra) # 80003f58 <_ZN15MemoryAllocator13sys_mem_allocEm>
    800038fc:	00a4b423          	sd	a0,8(s1)
    itemAvailable = SEM::createSEM(0);
    80003900:	00000513          	li	a0,0
    80003904:	00002097          	auipc	ra,0x2
    80003908:	8f8080e7          	jalr	-1800(ra) # 800051fc <_ZN3SEM9createSEMEi>
    8000390c:	02a4b023          	sd	a0,32(s1)
    spaceAvailable = SEM::createSEM(_cap);
    80003910:	00090513          	mv	a0,s2
    80003914:	00002097          	auipc	ra,0x2
    80003918:	8e8080e7          	jalr	-1816(ra) # 800051fc <_ZN3SEM9createSEMEi>
    8000391c:	00a4bc23          	sd	a0,24(s1)
    mutexHead = SEM::createSEM(1);
    80003920:	00100513          	li	a0,1
    80003924:	00002097          	auipc	ra,0x2
    80003928:	8d8080e7          	jalr	-1832(ra) # 800051fc <_ZN3SEM9createSEMEi>
    8000392c:	02a4b423          	sd	a0,40(s1)
    mutexTail = SEM::createSEM(1);
    80003930:	00100513          	li	a0,1
    80003934:	00002097          	auipc	ra,0x2
    80003938:	8c8080e7          	jalr	-1848(ra) # 800051fc <_ZN3SEM9createSEMEi>
    8000393c:	02a4b823          	sd	a0,48(s1)
}
    80003940:	01813083          	ld	ra,24(sp)
    80003944:	01013403          	ld	s0,16(sp)
    80003948:	00813483          	ld	s1,8(sp)
    8000394c:	00013903          	ld	s2,0(sp)
    80003950:	02010113          	addi	sp,sp,32
    80003954:	00008067          	ret

0000000080003958 <_ZN13ConsoleBuffer19createConsoleBufferEi>:

ConsoleBuffer *ConsoleBuffer::createConsoleBuffer(int _cap) {
    80003958:	fe010113          	addi	sp,sp,-32
    8000395c:	00113c23          	sd	ra,24(sp)
    80003960:	00813823          	sd	s0,16(sp)
    80003964:	00913423          	sd	s1,8(sp)
    80003968:	01213023          	sd	s2,0(sp)
    8000396c:	02010413          	addi	s0,sp,32
    80003970:	00050913          	mv	s2,a0
    ConsoleBuffer *ret = (ConsoleBuffer *)kmalloc(sizeof(ConsoleBuffer));
    80003974:	03800513          	li	a0,56
    80003978:	00001097          	auipc	ra,0x1
    8000397c:	754080e7          	jalr	1876(ra) # 800050cc <_Z7kmallocm>
    80003980:	00050493          	mv	s1,a0
    if(ret == nullptr) return nullptr;
    80003984:	04050e63          	beqz	a0,800039e0 <_ZN13ConsoleBuffer19createConsoleBufferEi+0x88>

    ret->head = 0;
    80003988:	00052823          	sw	zero,16(a0)
    ret->tail = 0;
    8000398c:	00052a23          	sw	zero,20(a0)
    ret->buffer = (char *)kmalloc(sizeof(char)*_cap);
    80003990:	00090513          	mv	a0,s2
    80003994:	00001097          	auipc	ra,0x1
    80003998:	738080e7          	jalr	1848(ra) # 800050cc <_Z7kmallocm>
    8000399c:	00a4b423          	sd	a0,8(s1)
    ret->itemAvailable = SEM::createSEM(0);
    800039a0:	00000513          	li	a0,0
    800039a4:	00002097          	auipc	ra,0x2
    800039a8:	858080e7          	jalr	-1960(ra) # 800051fc <_ZN3SEM9createSEMEi>
    800039ac:	02a4b023          	sd	a0,32(s1)
    ret->spaceAvailable = SEM::createSEM(_cap);
    800039b0:	00090513          	mv	a0,s2
    800039b4:	00002097          	auipc	ra,0x2
    800039b8:	848080e7          	jalr	-1976(ra) # 800051fc <_ZN3SEM9createSEMEi>
    800039bc:	00a4bc23          	sd	a0,24(s1)
    ret->mutexHead = SEM::createSEM(1);
    800039c0:	00100513          	li	a0,1
    800039c4:	00002097          	auipc	ra,0x2
    800039c8:	838080e7          	jalr	-1992(ra) # 800051fc <_ZN3SEM9createSEMEi>
    800039cc:	02a4b423          	sd	a0,40(s1)
    ret->mutexTail = SEM::createSEM(1);
    800039d0:	00100513          	li	a0,1
    800039d4:	00002097          	auipc	ra,0x2
    800039d8:	828080e7          	jalr	-2008(ra) # 800051fc <_ZN3SEM9createSEMEi>
    800039dc:	02a4b823          	sd	a0,48(s1)
    return ret;
}
    800039e0:	00048513          	mv	a0,s1
    800039e4:	01813083          	ld	ra,24(sp)
    800039e8:	01013403          	ld	s0,16(sp)
    800039ec:	00813483          	ld	s1,8(sp)
    800039f0:	00013903          	ld	s2,0(sp)
    800039f4:	02010113          	addi	sp,sp,32
    800039f8:	00008067          	ret

00000000800039fc <_ZN13ConsoleBuffer3putEi>:
    MemoryAllocator::sys_mem_free(spaceAvailable);
    MemoryAllocator::sys_mem_free(mutexTail);
    MemoryAllocator::sys_mem_free(mutexHead);
}

void ConsoleBuffer::put(int val) {
    800039fc:	fe010113          	addi	sp,sp,-32
    80003a00:	00113c23          	sd	ra,24(sp)
    80003a04:	00813823          	sd	s0,16(sp)
    80003a08:	00913423          	sd	s1,8(sp)
    80003a0c:	01213023          	sd	s2,0(sp)
    80003a10:	02010413          	addi	s0,sp,32
    80003a14:	00050493          	mv	s1,a0
    80003a18:	00058913          	mv	s2,a1
    spaceAvailable->wait();
    80003a1c:	01853503          	ld	a0,24(a0)
    80003a20:	00002097          	auipc	ra,0x2
    80003a24:	860080e7          	jalr	-1952(ra) # 80005280 <_ZN3SEM4waitEv>

    mutexTail->wait();
    80003a28:	0304b503          	ld	a0,48(s1)
    80003a2c:	00002097          	auipc	ra,0x2
    80003a30:	854080e7          	jalr	-1964(ra) # 80005280 <_ZN3SEM4waitEv>
    buffer[tail] = val;
    80003a34:	0084b783          	ld	a5,8(s1)
    80003a38:	0144a703          	lw	a4,20(s1)
    80003a3c:	00e787b3          	add	a5,a5,a4
    80003a40:	01278023          	sb	s2,0(a5)
    tail = (tail + 1) % cap;
    80003a44:	0144a783          	lw	a5,20(s1)
    80003a48:	0017879b          	addiw	a5,a5,1
    80003a4c:	0004a703          	lw	a4,0(s1)
    80003a50:	02e7e7bb          	remw	a5,a5,a4
    80003a54:	00f4aa23          	sw	a5,20(s1)

    mutexTail->signal();
    80003a58:	0304b503          	ld	a0,48(s1)
    80003a5c:	00002097          	auipc	ra,0x2
    80003a60:	8bc080e7          	jalr	-1860(ra) # 80005318 <_ZN3SEM6signalEv>

    itemAvailable->signal();
    80003a64:	0204b503          	ld	a0,32(s1)
    80003a68:	00002097          	auipc	ra,0x2
    80003a6c:	8b0080e7          	jalr	-1872(ra) # 80005318 <_ZN3SEM6signalEv>

}
    80003a70:	01813083          	ld	ra,24(sp)
    80003a74:	01013403          	ld	s0,16(sp)
    80003a78:	00813483          	ld	s1,8(sp)
    80003a7c:	00013903          	ld	s2,0(sp)
    80003a80:	02010113          	addi	sp,sp,32
    80003a84:	00008067          	ret

0000000080003a88 <_ZN13ConsoleBuffer3getEv>:

int ConsoleBuffer::get() {
    80003a88:	fe010113          	addi	sp,sp,-32
    80003a8c:	00113c23          	sd	ra,24(sp)
    80003a90:	00813823          	sd	s0,16(sp)
    80003a94:	00913423          	sd	s1,8(sp)
    80003a98:	01213023          	sd	s2,0(sp)
    80003a9c:	02010413          	addi	s0,sp,32
    80003aa0:	00050493          	mv	s1,a0
    itemAvailable->wait();
    80003aa4:	02053503          	ld	a0,32(a0)
    80003aa8:	00001097          	auipc	ra,0x1
    80003aac:	7d8080e7          	jalr	2008(ra) # 80005280 <_ZN3SEM4waitEv>

    mutexHead->wait();
    80003ab0:	0284b503          	ld	a0,40(s1)
    80003ab4:	00001097          	auipc	ra,0x1
    80003ab8:	7cc080e7          	jalr	1996(ra) # 80005280 <_ZN3SEM4waitEv>

    int ret = buffer[head];
    80003abc:	0084b703          	ld	a4,8(s1)
    80003ac0:	0104a783          	lw	a5,16(s1)
    80003ac4:	00f70733          	add	a4,a4,a5
    80003ac8:	00074903          	lbu	s2,0(a4)
    head = (head + 1) % cap;
    80003acc:	0017879b          	addiw	a5,a5,1
    80003ad0:	0004a703          	lw	a4,0(s1)
    80003ad4:	02e7e7bb          	remw	a5,a5,a4
    80003ad8:	00f4a823          	sw	a5,16(s1)

    mutexHead->signal();
    80003adc:	0284b503          	ld	a0,40(s1)
    80003ae0:	00002097          	auipc	ra,0x2
    80003ae4:	838080e7          	jalr	-1992(ra) # 80005318 <_ZN3SEM6signalEv>

    spaceAvailable->signal();
    80003ae8:	0184b503          	ld	a0,24(s1)
    80003aec:	00002097          	auipc	ra,0x2
    80003af0:	82c080e7          	jalr	-2004(ra) # 80005318 <_ZN3SEM6signalEv>

    return ret;
}
    80003af4:	00090513          	mv	a0,s2
    80003af8:	01813083          	ld	ra,24(sp)
    80003afc:	01013403          	ld	s0,16(sp)
    80003b00:	00813483          	ld	s1,8(sp)
    80003b04:	00013903          	ld	s2,0(sp)
    80003b08:	02010113          	addi	sp,sp,32
    80003b0c:	00008067          	ret

0000000080003b10 <_ZN13ConsoleBuffer6getCntEv>:

int ConsoleBuffer::getCnt() {
    80003b10:	fe010113          	addi	sp,sp,-32
    80003b14:	00113c23          	sd	ra,24(sp)
    80003b18:	00813823          	sd	s0,16(sp)
    80003b1c:	00913423          	sd	s1,8(sp)
    80003b20:	01213023          	sd	s2,0(sp)
    80003b24:	02010413          	addi	s0,sp,32
    80003b28:	00050493          	mv	s1,a0
    int ret;

    mutexHead->wait();
    80003b2c:	02853503          	ld	a0,40(a0)
    80003b30:	00001097          	auipc	ra,0x1
    80003b34:	750080e7          	jalr	1872(ra) # 80005280 <_ZN3SEM4waitEv>
    mutexTail->wait();
    80003b38:	0304b503          	ld	a0,48(s1)
    80003b3c:	00001097          	auipc	ra,0x1
    80003b40:	744080e7          	jalr	1860(ra) # 80005280 <_ZN3SEM4waitEv>

    if (tail >= head) {
    80003b44:	0144a783          	lw	a5,20(s1)
    80003b48:	0104a903          	lw	s2,16(s1)
    80003b4c:	0327ce63          	blt	a5,s2,80003b88 <_ZN13ConsoleBuffer6getCntEv+0x78>
        ret = tail - head;
    80003b50:	4127893b          	subw	s2,a5,s2
    } else {
        ret = cap - head + tail;
    }

    mutexTail->signal();
    80003b54:	0304b503          	ld	a0,48(s1)
    80003b58:	00001097          	auipc	ra,0x1
    80003b5c:	7c0080e7          	jalr	1984(ra) # 80005318 <_ZN3SEM6signalEv>
    mutexHead->signal();
    80003b60:	0284b503          	ld	a0,40(s1)
    80003b64:	00001097          	auipc	ra,0x1
    80003b68:	7b4080e7          	jalr	1972(ra) # 80005318 <_ZN3SEM6signalEv>

    return ret;
}
    80003b6c:	00090513          	mv	a0,s2
    80003b70:	01813083          	ld	ra,24(sp)
    80003b74:	01013403          	ld	s0,16(sp)
    80003b78:	00813483          	ld	s1,8(sp)
    80003b7c:	00013903          	ld	s2,0(sp)
    80003b80:	02010113          	addi	sp,sp,32
    80003b84:	00008067          	ret
        ret = cap - head + tail;
    80003b88:	0004a703          	lw	a4,0(s1)
    80003b8c:	4127093b          	subw	s2,a4,s2
    80003b90:	00f9093b          	addw	s2,s2,a5
    80003b94:	fc1ff06f          	j	80003b54 <_ZN13ConsoleBuffer6getCntEv+0x44>

0000000080003b98 <_ZN13ConsoleBufferD1Ev>:
ConsoleBuffer::~ConsoleBuffer() {
    80003b98:	fe010113          	addi	sp,sp,-32
    80003b9c:	00113c23          	sd	ra,24(sp)
    80003ba0:	00813823          	sd	s0,16(sp)
    80003ba4:	00913423          	sd	s1,8(sp)
    80003ba8:	02010413          	addi	s0,sp,32
    80003bac:	00050493          	mv	s1,a0
    while (getCnt() > 0) {
    80003bb0:	00048513          	mv	a0,s1
    80003bb4:	00000097          	auipc	ra,0x0
    80003bb8:	f5c080e7          	jalr	-164(ra) # 80003b10 <_ZN13ConsoleBuffer6getCntEv>
    80003bbc:	00a05e63          	blez	a0,80003bd8 <_ZN13ConsoleBufferD1Ev+0x40>
        head = (head + 1) % cap;
    80003bc0:	0104a783          	lw	a5,16(s1)
    80003bc4:	0017879b          	addiw	a5,a5,1
    80003bc8:	0004a703          	lw	a4,0(s1)
    80003bcc:	02e7e7bb          	remw	a5,a5,a4
    80003bd0:	00f4a823          	sw	a5,16(s1)
    while (getCnt() > 0) {
    80003bd4:	fddff06f          	j	80003bb0 <_ZN13ConsoleBufferD1Ev+0x18>
    MemoryAllocator::sys_mem_free(buffer);
    80003bd8:	0084b503          	ld	a0,8(s1)
    80003bdc:	00000097          	auipc	ra,0x0
    80003be0:	4a8080e7          	jalr	1192(ra) # 80004084 <_ZN15MemoryAllocator12sys_mem_freeEPv>
    itemAvailable->close();
    80003be4:	0204b503          	ld	a0,32(s1)
    80003be8:	00001097          	auipc	ra,0x1
    80003bec:	794080e7          	jalr	1940(ra) # 8000537c <_ZN3SEM5closeEv>
    spaceAvailable->close();
    80003bf0:	0184b503          	ld	a0,24(s1)
    80003bf4:	00001097          	auipc	ra,0x1
    80003bf8:	788080e7          	jalr	1928(ra) # 8000537c <_ZN3SEM5closeEv>
    mutexTail->close();
    80003bfc:	0304b503          	ld	a0,48(s1)
    80003c00:	00001097          	auipc	ra,0x1
    80003c04:	77c080e7          	jalr	1916(ra) # 8000537c <_ZN3SEM5closeEv>
    mutexHead->close();
    80003c08:	0284b503          	ld	a0,40(s1)
    80003c0c:	00001097          	auipc	ra,0x1
    80003c10:	770080e7          	jalr	1904(ra) # 8000537c <_ZN3SEM5closeEv>
    MemoryAllocator::sys_mem_free(itemAvailable);
    80003c14:	0204b503          	ld	a0,32(s1)
    80003c18:	00000097          	auipc	ra,0x0
    80003c1c:	46c080e7          	jalr	1132(ra) # 80004084 <_ZN15MemoryAllocator12sys_mem_freeEPv>
    MemoryAllocator::sys_mem_free(spaceAvailable);
    80003c20:	0184b503          	ld	a0,24(s1)
    80003c24:	00000097          	auipc	ra,0x0
    80003c28:	460080e7          	jalr	1120(ra) # 80004084 <_ZN15MemoryAllocator12sys_mem_freeEPv>
    MemoryAllocator::sys_mem_free(mutexTail);
    80003c2c:	0304b503          	ld	a0,48(s1)
    80003c30:	00000097          	auipc	ra,0x0
    80003c34:	454080e7          	jalr	1108(ra) # 80004084 <_ZN15MemoryAllocator12sys_mem_freeEPv>
    MemoryAllocator::sys_mem_free(mutexHead);
    80003c38:	0284b503          	ld	a0,40(s1)
    80003c3c:	00000097          	auipc	ra,0x0
    80003c40:	448080e7          	jalr	1096(ra) # 80004084 <_ZN15MemoryAllocator12sys_mem_freeEPv>
}
    80003c44:	01813083          	ld	ra,24(sp)
    80003c48:	01013403          	ld	s0,16(sp)
    80003c4c:	00813483          	ld	s1,8(sp)
    80003c50:	02010113          	addi	sp,sp,32
    80003c54:	00008067          	ret

0000000080003c58 <_ZN6SleepQ3putEP3PCBm>:
SleepQ::ElemQ *SleepQ::head = nullptr;
SleepQ::ElemQ *SleepQ::last = nullptr;

kmem_cache_t *SleepQ::ElemQ::cache = nullptr;

void SleepQ::put(PCB *pcb, time_t time){
    80003c58:	fd010113          	addi	sp,sp,-48
    80003c5c:	02113423          	sd	ra,40(sp)
    80003c60:	02813023          	sd	s0,32(sp)
    80003c64:	00913c23          	sd	s1,24(sp)
    80003c68:	01213823          	sd	s2,16(sp)
    80003c6c:	01313423          	sd	s3,8(sp)
    80003c70:	03010413          	addi	s0,sp,48
    80003c74:	00050913          	mv	s2,a0
    80003c78:	00058493          	mv	s1,a1
    if(head == nullptr){
    80003c7c:	00006797          	auipc	a5,0x6
    80003c80:	47c7b783          	ld	a5,1148(a5) # 8000a0f8 <_ZN6SleepQ4headE>
    80003c84:	06078263          	beqz	a5,80003ce8 <_ZN6SleepQ3putEP3PCBm+0x90>

        static kmem_cache_t *cache;
        ElemQ(PCB* p, time_t r, ElemQ* n = nullptr): pcb(p), rang(r), next(n) {}

        static ElemQ *createElemQ(PCB *p, time_t r, ElemQ* n = nullptr){
            ElemQ *ret = (ElemQ *) kmem_cache_alloc(ElemQ::cache);
    80003c88:	00006997          	auipc	s3,0x6
    80003c8c:	47098993          	addi	s3,s3,1136 # 8000a0f8 <_ZN6SleepQ4headE>
    80003c90:	0089b503          	ld	a0,8(s3)
    80003c94:	00001097          	auipc	ra,0x1
    80003c98:	488080e7          	jalr	1160(ra) # 8000511c <_Z16kmem_cache_allocP10kmem_cache>
            ret->pcb = p;
    80003c9c:	01253023          	sd	s2,0(a0)
            ret->rang = r;
    80003ca0:	00953423          	sd	s1,8(a0)
            ret->next = n;
    80003ca4:	00053823          	sd	zero,16(a0)
        new_e->next = nullptr;
        head = new_e;
        last = new_e;
    }else{
        ElemQ *new_e = ElemQ::createElemQ(pcb, time);//new ElemQ(pcb, time);
        if(time <= head->rang){
    80003ca8:	0009b603          	ld	a2,0(s3)
    80003cac:	00863583          	ld	a1,8(a2)
    80003cb0:	0695e263          	bltu	a1,s1,80003d14 <_ZN6SleepQ3putEP3PCBm+0xbc>
            new_e->next = head;
    80003cb4:	00c53823          	sd	a2,16(a0)
            head->rang = head->rang - new_e->rang;
    80003cb8:	00863583          	ld	a1,8(a2)
    80003cbc:	409584b3          	sub	s1,a1,s1
    80003cc0:	00963423          	sd	s1,8(a2)
            head = new_e;
    80003cc4:	00006797          	auipc	a5,0x6
    80003cc8:	42a7ba23          	sd	a0,1076(a5) # 8000a0f8 <_ZN6SleepQ4headE>
                last->next = new_e;
                last = new_e;
            }
        }
    }
}
    80003ccc:	02813083          	ld	ra,40(sp)
    80003cd0:	02013403          	ld	s0,32(sp)
    80003cd4:	01813483          	ld	s1,24(sp)
    80003cd8:	01013903          	ld	s2,16(sp)
    80003cdc:	00813983          	ld	s3,8(sp)
    80003ce0:	03010113          	addi	sp,sp,48
    80003ce4:	00008067          	ret
            ElemQ *ret = (ElemQ *) kmem_cache_alloc(ElemQ::cache);
    80003ce8:	00006997          	auipc	s3,0x6
    80003cec:	41098993          	addi	s3,s3,1040 # 8000a0f8 <_ZN6SleepQ4headE>
    80003cf0:	0089b503          	ld	a0,8(s3)
    80003cf4:	00001097          	auipc	ra,0x1
    80003cf8:	428080e7          	jalr	1064(ra) # 8000511c <_Z16kmem_cache_allocP10kmem_cache>
            ret->pcb = p;
    80003cfc:	01253023          	sd	s2,0(a0)
            ret->rang = r;
    80003d00:	00953423          	sd	s1,8(a0)
            ret->next = n;
    80003d04:	00053823          	sd	zero,16(a0)
        head = new_e;
    80003d08:	00a9b023          	sd	a0,0(s3)
        last = new_e;
    80003d0c:	00a9b823          	sd	a0,16(s3)
    80003d10:	fbdff06f          	j	80003ccc <_ZN6SleepQ3putEP3PCBm+0x74>
            ElemQ *tmp = head->next;
    80003d14:	01063783          	ld	a5,16(a2)
            new_e->rang = new_e->rang - head->rang;
    80003d18:	40b484b3          	sub	s1,s1,a1
    80003d1c:	00953423          	sd	s1,8(a0)
    80003d20:	0140006f          	j	80003d34 <_ZN6SleepQ3putEP3PCBm+0xdc>
                new_e->rang = new_e->rang - tmp->rang;
    80003d24:	40d70733          	sub	a4,a4,a3
    80003d28:	00e53423          	sd	a4,8(a0)
                prev = tmp;
    80003d2c:	00078613          	mv	a2,a5
                tmp = tmp->next;
    80003d30:	0107b783          	ld	a5,16(a5)
            while(tmp != nullptr){
    80003d34:	02078063          	beqz	a5,80003d54 <_ZN6SleepQ3putEP3PCBm+0xfc>
                if(new_e->rang <= tmp->rang){
    80003d38:	00853703          	ld	a4,8(a0)
    80003d3c:	0087b683          	ld	a3,8(a5)
    80003d40:	fee6e2e3          	bltu	a3,a4,80003d24 <_ZN6SleepQ3putEP3PCBm+0xcc>
                    tmp->rang = tmp->rang - new_e->rang;
    80003d44:	40e68733          	sub	a4,a3,a4
    80003d48:	00e7b423          	sd	a4,8(a5)
                    prev->next = new_e;
    80003d4c:	00a63823          	sd	a0,16(a2)
                    new_e->next = tmp;
    80003d50:	00f53823          	sd	a5,16(a0)
            if(tmp == nullptr){
    80003d54:	f6079ce3          	bnez	a5,80003ccc <_ZN6SleepQ3putEP3PCBm+0x74>
                last->next = new_e;
    80003d58:	00006797          	auipc	a5,0x6
    80003d5c:	3a078793          	addi	a5,a5,928 # 8000a0f8 <_ZN6SleepQ4headE>
    80003d60:	0107b703          	ld	a4,16(a5)
    80003d64:	00a73823          	sd	a0,16(a4)
                last = new_e;
    80003d68:	00a7b823          	sd	a0,16(a5)
}
    80003d6c:	f61ff06f          	j	80003ccc <_ZN6SleepQ3putEP3PCBm+0x74>

0000000080003d70 <_ZN6SleepQ3getEv>:

PCB *SleepQ::get(){
    80003d70:	fe010113          	addi	sp,sp,-32
    80003d74:	00113c23          	sd	ra,24(sp)
    80003d78:	00813823          	sd	s0,16(sp)
    80003d7c:	00913423          	sd	s1,8(sp)
    80003d80:	02010413          	addi	s0,sp,32
    if(!head) return nullptr;
    80003d84:	00006597          	auipc	a1,0x6
    80003d88:	3745b583          	ld	a1,884(a1) # 8000a0f8 <_ZN6SleepQ4headE>
    80003d8c:	04058663          	beqz	a1,80003dd8 <_ZN6SleepQ3getEv+0x68>

    ElemQ *tmp = head;
    head = head->next;
    80003d90:	0105b783          	ld	a5,16(a1)
    80003d94:	00006717          	auipc	a4,0x6
    80003d98:	36f73223          	sd	a5,868(a4) # 8000a0f8 <_ZN6SleepQ4headE>
    if(!head) last = nullptr;
    80003d9c:	02078863          	beqz	a5,80003dcc <_ZN6SleepQ3getEv+0x5c>

    PCB *res = tmp->pcb;
    80003da0:	0005b483          	ld	s1,0(a1)
            return ret;
        }

        static void freeObject(ElemQ *obj){
            kmem_cache_free(ElemQ::cache, (void *)obj);
    80003da4:	00006517          	auipc	a0,0x6
    80003da8:	35c53503          	ld	a0,860(a0) # 8000a100 <_ZN6SleepQ5ElemQ5cacheE>
    80003dac:	00001097          	auipc	ra,0x1
    80003db0:	398080e7          	jalr	920(ra) # 80005144 <_Z15kmem_cache_freeP10kmem_cachePv>
    //MemoryAllocator::sys_mem_free(tmp);
    ElemQ::freeObject(tmp);
    return res;
}
    80003db4:	00048513          	mv	a0,s1
    80003db8:	01813083          	ld	ra,24(sp)
    80003dbc:	01013403          	ld	s0,16(sp)
    80003dc0:	00813483          	ld	s1,8(sp)
    80003dc4:	02010113          	addi	sp,sp,32
    80003dc8:	00008067          	ret
    if(!head) last = nullptr;
    80003dcc:	00006797          	auipc	a5,0x6
    80003dd0:	3207be23          	sd	zero,828(a5) # 8000a108 <_ZN6SleepQ4lastE>
    80003dd4:	fcdff06f          	j	80003da0 <_ZN6SleepQ3getEv+0x30>
    if(!head) return nullptr;
    80003dd8:	00058493          	mv	s1,a1
    80003ddc:	fd9ff06f          	j	80003db4 <_ZN6SleepQ3getEv+0x44>

0000000080003de0 <_ZN6SleepQ6updateEv>:

void SleepQ::update() {
    80003de0:	ff010113          	addi	sp,sp,-16
    80003de4:	00813423          	sd	s0,8(sp)
    80003de8:	01010413          	addi	s0,sp,16
    if(head != nullptr) {
    80003dec:	00006797          	auipc	a5,0x6
    80003df0:	30c7b783          	ld	a5,780(a5) # 8000a0f8 <_ZN6SleepQ4headE>
    80003df4:	00078a63          	beqz	a5,80003e08 <_ZN6SleepQ6updateEv+0x28>
        if(head->rang != 0) head->rang--;
    80003df8:	0087b703          	ld	a4,8(a5)
    80003dfc:	00070663          	beqz	a4,80003e08 <_ZN6SleepQ6updateEv+0x28>
    80003e00:	fff70713          	addi	a4,a4,-1
    80003e04:	00e7b423          	sd	a4,8(a5)
    }
    80003e08:	00813403          	ld	s0,8(sp)
    80003e0c:	01010113          	addi	sp,sp,16
    80003e10:	00008067          	ret

0000000080003e14 <_ZN9Scheduler3getEv>:
#include "../h/scheduler.hpp"
#include "../h/PCB_List.hpp"

PCB_List *Scheduler::readyThreadQueue;

PCB *Scheduler::get(){
    80003e14:	ff010113          	addi	sp,sp,-16
    80003e18:	00113423          	sd	ra,8(sp)
    80003e1c:	00813023          	sd	s0,0(sp)
    80003e20:	01010413          	addi	s0,sp,16
    return readyThreadQueue->removeFirst();
    80003e24:	00006517          	auipc	a0,0x6
    80003e28:	2ec53503          	ld	a0,748(a0) # 8000a110 <_ZN9Scheduler16readyThreadQueueE>
    80003e2c:	ffffe097          	auipc	ra,0xffffe
    80003e30:	1b0080e7          	jalr	432(ra) # 80001fdc <_ZN8PCB_List11removeFirstEv>
}
    80003e34:	00813083          	ld	ra,8(sp)
    80003e38:	00013403          	ld	s0,0(sp)
    80003e3c:	01010113          	addi	sp,sp,16
    80003e40:	00008067          	ret

0000000080003e44 <_ZN9Scheduler3putEP3PCB>:

int Scheduler::put(PCB *pcb) {
    80003e44:	ff010113          	addi	sp,sp,-16
    80003e48:	00113423          	sd	ra,8(sp)
    80003e4c:	00813023          	sd	s0,0(sp)
    80003e50:	01010413          	addi	s0,sp,16
    80003e54:	00050593          	mv	a1,a0
    return readyThreadQueue->addLast(pcb);
    80003e58:	00006517          	auipc	a0,0x6
    80003e5c:	2b853503          	ld	a0,696(a0) # 8000a110 <_ZN9Scheduler16readyThreadQueueE>
    80003e60:	ffffe097          	auipc	ra,0xffffe
    80003e64:	0fc080e7          	jalr	252(ra) # 80001f5c <_ZN8PCB_List7addLastEP3PCB>
}
    80003e68:	00813083          	ld	ra,8(sp)
    80003e6c:	00013403          	ld	s0,0(sp)
    80003e70:	01010113          	addi	sp,sp,16
    80003e74:	00008067          	ret

0000000080003e78 <_ZN9Scheduler15createSchedulerEP10kmem_cache>:

void Scheduler::createScheduler(kmem_cache_t *cache) {
    80003e78:	ff010113          	addi	sp,sp,-16
    80003e7c:	00113423          	sd	ra,8(sp)
    80003e80:	00813023          	sd	s0,0(sp)
    80003e84:	01010413          	addi	s0,sp,16
    readyThreadQueue = (PCB_List *)kmem_cache_alloc(cache);
    80003e88:	00001097          	auipc	ra,0x1
    80003e8c:	294080e7          	jalr	660(ra) # 8000511c <_Z16kmem_cache_allocP10kmem_cache>
    80003e90:	00006797          	auipc	a5,0x6
    80003e94:	28a7b023          	sd	a0,640(a5) # 8000a110 <_ZN9Scheduler16readyThreadQueueE>
}
    80003e98:	00813083          	ld	ra,8(sp)
    80003e9c:	00013403          	ld	s0,0(sp)
    80003ea0:	01010113          	addi	sp,sp,16
    80003ea4:	00008067          	ret

0000000080003ea8 <_Z41__static_initialization_and_destruction_0ii>:
        }
        prev = tmp;
        tmp = tmp->next;
    }
    return (void*)-1;
    80003ea8:	ff010113          	addi	sp,sp,-16
    80003eac:	00813423          	sd	s0,8(sp)
    80003eb0:	01010413          	addi	s0,sp,16
    80003eb4:	00100793          	li	a5,1
    80003eb8:	00f50863          	beq	a0,a5,80003ec8 <_Z41__static_initialization_and_destruction_0ii+0x20>
    80003ebc:	00813403          	ld	s0,8(sp)
    80003ec0:	01010113          	addi	sp,sp,16
    80003ec4:	00008067          	ret
    80003ec8:	000107b7          	lui	a5,0x10
    80003ecc:	fff78793          	addi	a5,a5,-1 # ffff <_entry-0x7fff0001>
    80003ed0:	fef596e3          	bne	a1,a5,80003ebc <_Z41__static_initialization_and_destruction_0ii+0x14>
const void* MemoryAllocator::MEM_START = (void *)HEAP_START_ADDR;
    80003ed4:	00006797          	auipc	a5,0x6
    80003ed8:	24478793          	addi	a5,a5,580 # 8000a118 <_ZN15MemoryAllocator9MEM_STARTE>
    80003edc:	00006717          	auipc	a4,0x6
    80003ee0:	08473703          	ld	a4,132(a4) # 80009f60 <_GLOBAL_OFFSET_TABLE_+0x30>
    80003ee4:	00073703          	ld	a4,0(a4)
    80003ee8:	00e7b023          	sd	a4,0(a5)
const void* MemoryAllocator::MEM_END = (void *)HEAP_END_ADDR;
    80003eec:	00006717          	auipc	a4,0x6
    80003ef0:	0fc73703          	ld	a4,252(a4) # 80009fe8 <_GLOBAL_OFFSET_TABLE_+0xb8>
    80003ef4:	00073703          	ld	a4,0(a4)
    80003ef8:	00e7b423          	sd	a4,8(a5)
    80003efc:	fc1ff06f          	j	80003ebc <_Z41__static_initialization_and_destruction_0ii+0x14>

0000000080003f00 <_ZN15MemoryAllocator8mem_initEPvS0_>:
void MemoryAllocator::mem_init(void* START, void* END){
    80003f00:	ff010113          	addi	sp,sp,-16
    80003f04:	00813423          	sd	s0,8(sp)
    80003f08:	01010413          	addi	s0,sp,16
    MEM_START = START;
    80003f0c:	00006797          	auipc	a5,0x6
    80003f10:	20c78793          	addi	a5,a5,524 # 8000a118 <_ZN15MemoryAllocator9MEM_STARTE>
    80003f14:	00a7b023          	sd	a0,0(a5)
    MEM_END = END;
    80003f18:	00b7b423          	sd	a1,8(a5)
}
    80003f1c:	00813403          	ld	s0,8(sp)
    80003f20:	01010113          	addi	sp,sp,16
    80003f24:	00008067          	ret

0000000080003f28 <_ZN15MemoryAllocator10emptySpaceEmm>:
void MemoryAllocator::emptySpace(uint64 startAddr, uint64 size) {
    80003f28:	ff010113          	addi	sp,sp,-16
    80003f2c:	00813423          	sd	s0,8(sp)
    80003f30:	01010413          	addi	s0,sp,16
    uint64 addr = startAddr;
    80003f34:	00050793          	mv	a5,a0
    while(addr < startAddr + size){
    80003f38:	00b50733          	add	a4,a0,a1
    80003f3c:	00e7f863          	bgeu	a5,a4,80003f4c <_ZN15MemoryAllocator10emptySpaceEmm+0x24>
        *memory = 0;
    80003f40:	00078023          	sb	zero,0(a5)
        addr++;
    80003f44:	00178793          	addi	a5,a5,1
    while(addr < startAddr + size){
    80003f48:	ff1ff06f          	j	80003f38 <_ZN15MemoryAllocator10emptySpaceEmm+0x10>
}
    80003f4c:	00813403          	ld	s0,8(sp)
    80003f50:	01010113          	addi	sp,sp,16
    80003f54:	00008067          	ret

0000000080003f58 <_ZN15MemoryAllocator13sys_mem_allocEm>:
void* MemoryAllocator::sys_mem_alloc(size_t size){
    80003f58:	ff010113          	addi	sp,sp,-16
    80003f5c:	00813423          	sd	s0,8(sp)
    80003f60:	01010413          	addi	s0,sp,16
    size_t realSize = ((size + sizeof(struct Allocator)) / MEM_BLOCK_SIZE) * MEM_BLOCK_SIZE + MEM_BLOCK_SIZE;
    80003f64:	01850613          	addi	a2,a0,24
    80003f68:	fc067613          	andi	a2,a2,-64
    80003f6c:	04060613          	addi	a2,a2,64
    uint64 addr = (uint64)MEM_START;
    80003f70:	00006717          	auipc	a4,0x6
    80003f74:	1a870713          	addi	a4,a4,424 # 8000a118 <_ZN15MemoryAllocator9MEM_STARTE>
    80003f78:	00073783          	ld	a5,0(a4)
    struct Allocator *head= alloc_head;
    80003f7c:	01073683          	ld	a3,16(a4)
    if(head == nullptr){
    80003f80:	04068063          	beqz	a3,80003fc0 <_ZN15MemoryAllocator13sys_mem_allocEm+0x68>
    if(realSize < alloc_head->start_addr - (uint64)MEM_START){
    80003f84:	0006b703          	ld	a4,0(a3)
    80003f88:	40f70733          	sub	a4,a4,a5
    80003f8c:	06e66663          	bltu	a2,a4,80003ff8 <_ZN15MemoryAllocator13sys_mem_allocEm+0xa0>
    struct Allocator *tmp = alloc_head->next;
    80003f90:	0106b503          	ld	a0,16(a3)
    while(tmp != nullptr){
    80003f94:	0a050a63          	beqz	a0,80004048 <_ZN15MemoryAllocator13sys_mem_allocEm+0xf0>
        if(realSize < tmp->start_addr - 1 - (prev->start_addr + prev->size)){
    80003f98:	00053783          	ld	a5,0(a0)
    80003f9c:	0006b703          	ld	a4,0(a3)
    80003fa0:	0086b583          	ld	a1,8(a3)
    80003fa4:	00b70733          	add	a4,a4,a1
    80003fa8:	40e787b3          	sub	a5,a5,a4
    80003fac:	fff78793          	addi	a5,a5,-1
    80003fb0:	06f66c63          	bltu	a2,a5,80004028 <_ZN15MemoryAllocator13sys_mem_allocEm+0xd0>
        prev = tmp;
    80003fb4:	00050693          	mv	a3,a0
        tmp = tmp->next;
    80003fb8:	01053503          	ld	a0,16(a0)
    while(tmp != nullptr){
    80003fbc:	fd9ff06f          	j	80003f94 <_ZN15MemoryAllocator13sys_mem_allocEm+0x3c>
        if(realSize < (uint64)MEM_END - (uint64)MEM_START){
    80003fc0:	00006717          	auipc	a4,0x6
    80003fc4:	16073703          	ld	a4,352(a4) # 8000a120 <_ZN15MemoryAllocator7MEM_ENDE>
    80003fc8:	40f70733          	sub	a4,a4,a5
    80003fcc:	02e67263          	bgeu	a2,a4,80003ff0 <_ZN15MemoryAllocator13sys_mem_allocEm+0x98>
            new_m->size = realSize;
    80003fd0:	00c7b423          	sd	a2,8(a5)
            new_m->next = nullptr;
    80003fd4:	0007b823          	sd	zero,16(a5)
            new_m->start_addr = addr;
    80003fd8:	00f7b023          	sd	a5,0(a5)
            alloc_head = new_m;
    80003fdc:	00006717          	auipc	a4,0x6
    80003fe0:	14f73623          	sd	a5,332(a4) # 8000a128 <_ZN15MemoryAllocator10alloc_headE>
            res = new_m->start_addr + sizeof(struct Allocator) + 1;
    80003fe4:	0007b503          	ld	a0,0(a5)
    80003fe8:	01950513          	addi	a0,a0,25
    80003fec:	0300006f          	j	8000401c <_ZN15MemoryAllocator13sys_mem_allocEm+0xc4>
            res = -1;
    80003ff0:	fff00513          	li	a0,-1
        return (void *)res;
    80003ff4:	0280006f          	j	8000401c <_ZN15MemoryAllocator13sys_mem_allocEm+0xc4>
        new_m->size = realSize;
    80003ff8:	00c7b423          	sd	a2,8(a5)
        new_m->start_addr = addr;
    80003ffc:	00f7b023          	sd	a5,0(a5)
        new_m->next = alloc_head;
    80004000:	00006717          	auipc	a4,0x6
    80004004:	11870713          	addi	a4,a4,280 # 8000a118 <_ZN15MemoryAllocator9MEM_STARTE>
    80004008:	01073683          	ld	a3,16(a4)
    8000400c:	00d7b823          	sd	a3,16(a5)
        alloc_head = new_m;
    80004010:	00f73823          	sd	a5,16(a4)
        res = new_m->start_addr + sizeof(struct Allocator);
    80004014:	0007b503          	ld	a0,0(a5)
    80004018:	01850513          	addi	a0,a0,24
}
    8000401c:	00813403          	ld	s0,8(sp)
    80004020:	01010113          	addi	sp,sp,16
    80004024:	00008067          	ret
            addr = prev->start_addr + prev->size + 1;
    80004028:	00170793          	addi	a5,a4,1
            new_m->start_addr = addr;
    8000402c:	00f730a3          	sd	a5,1(a4)
            new_m->size = realSize;
    80004030:	00c734a3          	sd	a2,9(a4)
            new_m->next = tmp;
    80004034:	00a738a3          	sd	a0,17(a4)
            prev->next = new_m;
    80004038:	00f6b823          	sd	a5,16(a3)
            res = new_m->start_addr + sizeof(struct Allocator) + 1;
    8000403c:	00173503          	ld	a0,1(a4)
    80004040:	01950513          	addi	a0,a0,25
            return (void *)res;
    80004044:	fd9ff06f          	j	8000401c <_ZN15MemoryAllocator13sys_mem_allocEm+0xc4>
    if(realSize < (uint64)MEM_END - (tmp->start_addr + tmp->size + 1)){
    80004048:	0006b703          	ld	a4,0(a3)
    8000404c:	0086b783          	ld	a5,8(a3)
    80004050:	00f70733          	add	a4,a4,a5
    80004054:	00006797          	auipc	a5,0x6
    80004058:	0cc7b783          	ld	a5,204(a5) # 8000a120 <_ZN15MemoryAllocator7MEM_ENDE>
    8000405c:	40e787b3          	sub	a5,a5,a4
    80004060:	fff78793          	addi	a5,a5,-1
    80004064:	faf67ce3          	bgeu	a2,a5,8000401c <_ZN15MemoryAllocator13sys_mem_allocEm+0xc4>
        addr = tmp->start_addr + tmp->size + 1;
    80004068:	00170793          	addi	a5,a4,1
        new_m->start_addr = addr;
    8000406c:	00f730a3          	sd	a5,1(a4)
        new_m->size = realSize;
    80004070:	00c734a3          	sd	a2,9(a4)
        new_m->next = nullptr;
    80004074:	000738a3          	sd	zero,17(a4)
        tmp->next = new_m;
    80004078:	00f6b823          	sd	a5,16(a3)
        res = addr + sizeof(struct Allocator) + 1;
    8000407c:	01a70513          	addi	a0,a4,26
        return (void *)res;
    80004080:	f9dff06f          	j	8000401c <_ZN15MemoryAllocator13sys_mem_allocEm+0xc4>

0000000080004084 <_ZN15MemoryAllocator12sys_mem_freeEPv>:
    struct Allocator *tmp = alloc_head;
    80004084:	00006797          	auipc	a5,0x6
    80004088:	0a47b783          	ld	a5,164(a5) # 8000a128 <_ZN15MemoryAllocator10alloc_headE>
    struct Allocator *prev = 0;
    8000408c:	00000693          	li	a3,0
    while(tmp != 0){
    80004090:	06078e63          	beqz	a5,8000410c <_ZN15MemoryAllocator12sys_mem_freeEPv+0x88>
        if(tmp->start_addr + sizeof(struct Allocator) == (uint64)addr){
    80004094:	0007b703          	ld	a4,0(a5)
    80004098:	01870713          	addi	a4,a4,24
    8000409c:	00a70863          	beq	a4,a0,800040ac <_ZN15MemoryAllocator12sys_mem_freeEPv+0x28>
        prev = tmp;
    800040a0:	00078693          	mv	a3,a5
        tmp = tmp->next;
    800040a4:	0107b783          	ld	a5,16(a5)
    while(tmp != 0){
    800040a8:	fe9ff06f          	j	80004090 <_ZN15MemoryAllocator12sys_mem_freeEPv+0xc>
void* MemoryAllocator::sys_mem_free(void *addr){
    800040ac:	ff010113          	addi	sp,sp,-16
    800040b0:	00113423          	sd	ra,8(sp)
    800040b4:	00813023          	sd	s0,0(sp)
    800040b8:	01010413          	addi	s0,sp,16
            if(prev == 0){ //if head is that must be deleted then...
    800040bc:	02068863          	beqz	a3,800040ec <_ZN15MemoryAllocator12sys_mem_freeEPv+0x68>
                prev->next = tmp->next;
    800040c0:	0107b703          	ld	a4,16(a5)
    800040c4:	00e6b823          	sd	a4,16(a3)
                emptySpace(tmp->start_addr, tmp->size);
    800040c8:	0087b583          	ld	a1,8(a5)
    800040cc:	0007b503          	ld	a0,0(a5)
    800040d0:	00000097          	auipc	ra,0x0
    800040d4:	e58080e7          	jalr	-424(ra) # 80003f28 <_ZN15MemoryAllocator10emptySpaceEmm>
            return 0;
    800040d8:	00000513          	li	a0,0
    800040dc:	00813083          	ld	ra,8(sp)
    800040e0:	00013403          	ld	s0,0(sp)
    800040e4:	01010113          	addi	sp,sp,16
    800040e8:	00008067          	ret
                alloc_head = tmp->next;
    800040ec:	0107b703          	ld	a4,16(a5)
    800040f0:	00006697          	auipc	a3,0x6
    800040f4:	02e6bc23          	sd	a4,56(a3) # 8000a128 <_ZN15MemoryAllocator10alloc_headE>
                emptySpace(tmp->start_addr, tmp->size);
    800040f8:	0087b583          	ld	a1,8(a5)
    800040fc:	0007b503          	ld	a0,0(a5)
    80004100:	00000097          	auipc	ra,0x0
    80004104:	e28080e7          	jalr	-472(ra) # 80003f28 <_ZN15MemoryAllocator10emptySpaceEmm>
    80004108:	fd1ff06f          	j	800040d8 <_ZN15MemoryAllocator12sys_mem_freeEPv+0x54>
    return (void*)-1;
    8000410c:	fff00513          	li	a0,-1
    80004110:	00008067          	ret

0000000080004114 <_GLOBAL__sub_I__ZN15MemoryAllocator10alloc_headE>:
    80004114:	ff010113          	addi	sp,sp,-16
    80004118:	00113423          	sd	ra,8(sp)
    8000411c:	00813023          	sd	s0,0(sp)
    80004120:	01010413          	addi	s0,sp,16
    80004124:	000105b7          	lui	a1,0x10
    80004128:	fff58593          	addi	a1,a1,-1 # ffff <_entry-0x7fff0001>
    8000412c:	00100513          	li	a0,1
    80004130:	00000097          	auipc	ra,0x0
    80004134:	d78080e7          	jalr	-648(ra) # 80003ea8 <_Z41__static_initialization_and_destruction_0ii>
    80004138:	00813083          	ld	ra,8(sp)
    8000413c:	00013403          	ld	s0,0(sp)
    80004140:	01010113          	addi	sp,sp,16
    80004144:	00008067          	ret

0000000080004148 <_ZN14ConsoleHandler20createConsoleHandlerEv>:
#include "../h/ConsoleHandler.hpp"
#include "../h/PCB.hpp"

ConsoleHandler *ConsoleHandler::instance = nullptr;

ConsoleHandler *ConsoleHandler::createConsoleHandler() {
    80004148:	fe010113          	addi	sp,sp,-32
    8000414c:	00113c23          	sd	ra,24(sp)
    80004150:	00813823          	sd	s0,16(sp)
    80004154:	00913423          	sd	s1,8(sp)
    80004158:	02010413          	addi	s0,sp,32
    ConsoleHandler *ret = (ConsoleHandler *)kmalloc(sizeof(ConsoleHandler));
    8000415c:	01000513          	li	a0,16
    80004160:	00001097          	auipc	ra,0x1
    80004164:	f6c080e7          	jalr	-148(ra) # 800050cc <_Z7kmallocm>
    80004168:	00050493          	mv	s1,a0
    ret->input = ConsoleBuffer::createConsoleBuffer(65536); //65536
    8000416c:	00010537          	lui	a0,0x10
    80004170:	fffff097          	auipc	ra,0xfffff
    80004174:	7e8080e7          	jalr	2024(ra) # 80003958 <_ZN13ConsoleBuffer19createConsoleBufferEi>
    80004178:	00a4b023          	sd	a0,0(s1)
    ret->output = ConsoleBuffer::createConsoleBuffer(65536);
    8000417c:	00010537          	lui	a0,0x10
    80004180:	fffff097          	auipc	ra,0xfffff
    80004184:	7d8080e7          	jalr	2008(ra) # 80003958 <_ZN13ConsoleBuffer19createConsoleBufferEi>
    80004188:	00a4b423          	sd	a0,8(s1)
    return ret;
}
    8000418c:	00048513          	mv	a0,s1
    80004190:	01813083          	ld	ra,24(sp)
    80004194:	01013403          	ld	s0,16(sp)
    80004198:	00813483          	ld	s1,8(sp)
    8000419c:	02010113          	addi	sp,sp,32
    800041a0:	00008067          	ret

00000000800041a4 <_ZN14ConsoleHandler8sys_getcEv>:


char ConsoleHandler::sys_getc() {
    800041a4:	ff010113          	addi	sp,sp,-16
    800041a8:	00113423          	sd	ra,8(sp)
    800041ac:	00813023          	sd	s0,0(sp)
    800041b0:	01010413          	addi	s0,sp,16
    return (char)input->get();
    800041b4:	00053503          	ld	a0,0(a0) # 10000 <_entry-0x7fff0000>
    800041b8:	00000097          	auipc	ra,0x0
    800041bc:	8d0080e7          	jalr	-1840(ra) # 80003a88 <_ZN13ConsoleBuffer3getEv>
}
    800041c0:	0ff57513          	andi	a0,a0,255
    800041c4:	00813083          	ld	ra,8(sp)
    800041c8:	00013403          	ld	s0,0(sp)
    800041cc:	01010113          	addi	sp,sp,16
    800041d0:	00008067          	ret

00000000800041d4 <_ZN14ConsoleHandler14writeDataInputEc>:

void ConsoleHandler::writeDataInput(char c) {
    800041d4:	ff010113          	addi	sp,sp,-16
    800041d8:	00113423          	sd	ra,8(sp)
    800041dc:	00813023          	sd	s0,0(sp)
    800041e0:	01010413          	addi	s0,sp,16
    input->put(c);
    800041e4:	00053503          	ld	a0,0(a0)
    800041e8:	00000097          	auipc	ra,0x0
    800041ec:	814080e7          	jalr	-2028(ra) # 800039fc <_ZN13ConsoleBuffer3putEi>
}
    800041f0:	00813083          	ld	ra,8(sp)
    800041f4:	00013403          	ld	s0,0(sp)
    800041f8:	01010113          	addi	sp,sp,16
    800041fc:	00008067          	ret

0000000080004200 <_ZN14ConsoleHandler8sys_putcEc>:

void ConsoleHandler::sys_putc(char c) {
    if(output != nullptr) {
    80004200:	00853503          	ld	a0,8(a0)
    80004204:	02050663          	beqz	a0,80004230 <_ZN14ConsoleHandler8sys_putcEc+0x30>
void ConsoleHandler::sys_putc(char c) {
    80004208:	ff010113          	addi	sp,sp,-16
    8000420c:	00113423          	sd	ra,8(sp)
    80004210:	00813023          	sd	s0,0(sp)
    80004214:	01010413          	addi	s0,sp,16
        output->put(c);
    80004218:	fffff097          	auipc	ra,0xfffff
    8000421c:	7e4080e7          	jalr	2020(ra) # 800039fc <_ZN13ConsoleBuffer3putEi>
    }
}
    80004220:	00813083          	ld	ra,8(sp)
    80004224:	00013403          	ld	s0,0(sp)
    80004228:	01010113          	addi	sp,sp,16
    8000422c:	00008067          	ret
    80004230:	00008067          	ret

0000000080004234 <_ZN14ConsoleHandler17sendDataToConsoleEv>:

[[noreturn]] void ConsoleHandler::sendDataToConsole() {
    80004234:	ff010113          	addi	sp,sp,-16
    80004238:	00113423          	sd	ra,8(sp)
    8000423c:	00813023          	sd	s0,0(sp)
    80004240:	01010413          	addi	s0,sp,16
    80004244:	0280006f          	j	8000426c <_ZN14ConsoleHandler17sendDataToConsoleEv+0x38>
    while(1) {
        char *status = (char *)CONSOLE_STATUS;
        if (*status & CONSOLE_TX_STATUS_BIT) {
            char data = (char) ConsoleHandler::getInstance()->output->get();
    80004248:	00006797          	auipc	a5,0x6
    8000424c:	ee87b783          	ld	a5,-280(a5) # 8000a130 <_ZN14ConsoleHandler8instanceE>
    80004250:	0087b503          	ld	a0,8(a5)
    80004254:	00000097          	auipc	ra,0x0
    80004258:	834080e7          	jalr	-1996(ra) # 80003a88 <_ZN13ConsoleBuffer3getEv>
            *((char *)CONSOLE_TX_DATA) = data;
    8000425c:	00006797          	auipc	a5,0x6
    80004260:	d2c7b783          	ld	a5,-724(a5) # 80009f88 <_GLOBAL_OFFSET_TABLE_+0x58>
    80004264:	0007b783          	ld	a5,0(a5)
    80004268:	00a78023          	sb	a0,0(a5)
        char *status = (char *)CONSOLE_STATUS;
    8000426c:	00006797          	auipc	a5,0x6
    80004270:	ce47b783          	ld	a5,-796(a5) # 80009f50 <_GLOBAL_OFFSET_TABLE_+0x20>
    80004274:	0007b783          	ld	a5,0(a5)
        if (*status & CONSOLE_TX_STATUS_BIT) {
    80004278:	0007c783          	lbu	a5,0(a5)
    8000427c:	0207f793          	andi	a5,a5,32
    80004280:	fe0786e3          	beqz	a5,8000426c <_ZN14ConsoleHandler17sendDataToConsoleEv+0x38>
        if(instance == nullptr){
    80004284:	00006797          	auipc	a5,0x6
    80004288:	eac7b783          	ld	a5,-340(a5) # 8000a130 <_ZN14ConsoleHandler8instanceE>
    8000428c:	fa079ee3          	bnez	a5,80004248 <_ZN14ConsoleHandler17sendDataToConsoleEv+0x14>
            instance = ConsoleHandler::createConsoleHandler();
    80004290:	00000097          	auipc	ra,0x0
    80004294:	eb8080e7          	jalr	-328(ra) # 80004148 <_ZN14ConsoleHandler20createConsoleHandlerEv>
    80004298:	00006797          	auipc	a5,0x6
    8000429c:	e8a7bc23          	sd	a0,-360(a5) # 8000a130 <_ZN14ConsoleHandler8instanceE>
    800042a0:	fa9ff06f          	j	80004248 <_ZN14ConsoleHandler17sendDataToConsoleEv+0x14>

00000000800042a4 <_ZN6BufferC1Ei>:
#include "../h/buffer.hpp"

Buffer::Buffer(int _cap) : cap(_cap + 1), head(0), tail(0) {
    800042a4:	fe010113          	addi	sp,sp,-32
    800042a8:	00113c23          	sd	ra,24(sp)
    800042ac:	00813823          	sd	s0,16(sp)
    800042b0:	00913423          	sd	s1,8(sp)
    800042b4:	01213023          	sd	s2,0(sp)
    800042b8:	02010413          	addi	s0,sp,32
    800042bc:	00050493          	mv	s1,a0
    800042c0:	00058913          	mv	s2,a1
    800042c4:	0015879b          	addiw	a5,a1,1
    800042c8:	0007851b          	sext.w	a0,a5
    800042cc:	00f4a023          	sw	a5,0(s1)
    800042d0:	0004a823          	sw	zero,16(s1)
    800042d4:	0004aa23          	sw	zero,20(s1)
    buffer = (int *)mem_alloc(sizeof(int) * cap);
    800042d8:	00251513          	slli	a0,a0,0x2
    800042dc:	ffffd097          	auipc	ra,0xffffd
    800042e0:	e68080e7          	jalr	-408(ra) # 80001144 <_Z9mem_allocm>
    800042e4:	00a4b423          	sd	a0,8(s1)
    sem_open(&itemAvailable, 0);
    800042e8:	00000593          	li	a1,0
    800042ec:	02048513          	addi	a0,s1,32
    800042f0:	ffffd097          	auipc	ra,0xffffd
    800042f4:	f4c080e7          	jalr	-180(ra) # 8000123c <_Z8sem_openPP3SEMj>
    sem_open(&spaceAvailable, _cap);
    800042f8:	00090593          	mv	a1,s2
    800042fc:	01848513          	addi	a0,s1,24
    80004300:	ffffd097          	auipc	ra,0xffffd
    80004304:	f3c080e7          	jalr	-196(ra) # 8000123c <_Z8sem_openPP3SEMj>
    sem_open(&mutexHead, 1);
    80004308:	00100593          	li	a1,1
    8000430c:	02848513          	addi	a0,s1,40
    80004310:	ffffd097          	auipc	ra,0xffffd
    80004314:	f2c080e7          	jalr	-212(ra) # 8000123c <_Z8sem_openPP3SEMj>
    sem_open(&mutexTail, 1);
    80004318:	00100593          	li	a1,1
    8000431c:	03048513          	addi	a0,s1,48
    80004320:	ffffd097          	auipc	ra,0xffffd
    80004324:	f1c080e7          	jalr	-228(ra) # 8000123c <_Z8sem_openPP3SEMj>
}
    80004328:	01813083          	ld	ra,24(sp)
    8000432c:	01013403          	ld	s0,16(sp)
    80004330:	00813483          	ld	s1,8(sp)
    80004334:	00013903          	ld	s2,0(sp)
    80004338:	02010113          	addi	sp,sp,32
    8000433c:	00008067          	ret

0000000080004340 <_ZN6Buffer3putEi>:
    sem_close(spaceAvailable);
    sem_close(mutexTail);
    sem_close(mutexHead);
}

void Buffer::put(int val) {
    80004340:	fe010113          	addi	sp,sp,-32
    80004344:	00113c23          	sd	ra,24(sp)
    80004348:	00813823          	sd	s0,16(sp)
    8000434c:	00913423          	sd	s1,8(sp)
    80004350:	01213023          	sd	s2,0(sp)
    80004354:	02010413          	addi	s0,sp,32
    80004358:	00050493          	mv	s1,a0
    8000435c:	00058913          	mv	s2,a1
    sem_wait(spaceAvailable);
    80004360:	01853503          	ld	a0,24(a0)
    80004364:	ffffd097          	auipc	ra,0xffffd
    80004368:	f58080e7          	jalr	-168(ra) # 800012bc <_Z8sem_waitP3SEM>

    sem_wait(mutexTail);
    8000436c:	0304b503          	ld	a0,48(s1)
    80004370:	ffffd097          	auipc	ra,0xffffd
    80004374:	f4c080e7          	jalr	-180(ra) # 800012bc <_Z8sem_waitP3SEM>
    buffer[tail] = val;
    80004378:	0084b783          	ld	a5,8(s1)
    8000437c:	0144a703          	lw	a4,20(s1)
    80004380:	00271713          	slli	a4,a4,0x2
    80004384:	00e787b3          	add	a5,a5,a4
    80004388:	0127a023          	sw	s2,0(a5)
    tail = (tail + 1) % cap;
    8000438c:	0144a783          	lw	a5,20(s1)
    80004390:	0017879b          	addiw	a5,a5,1
    80004394:	0004a703          	lw	a4,0(s1)
    80004398:	02e7e7bb          	remw	a5,a5,a4
    8000439c:	00f4aa23          	sw	a5,20(s1)
    sem_signal(mutexTail);
    800043a0:	0304b503          	ld	a0,48(s1)
    800043a4:	ffffd097          	auipc	ra,0xffffd
    800043a8:	f54080e7          	jalr	-172(ra) # 800012f8 <_Z10sem_signalP3SEM>

    sem_signal(itemAvailable);
    800043ac:	0204b503          	ld	a0,32(s1)
    800043b0:	ffffd097          	auipc	ra,0xffffd
    800043b4:	f48080e7          	jalr	-184(ra) # 800012f8 <_Z10sem_signalP3SEM>

}
    800043b8:	01813083          	ld	ra,24(sp)
    800043bc:	01013403          	ld	s0,16(sp)
    800043c0:	00813483          	ld	s1,8(sp)
    800043c4:	00013903          	ld	s2,0(sp)
    800043c8:	02010113          	addi	sp,sp,32
    800043cc:	00008067          	ret

00000000800043d0 <_ZN6Buffer3getEv>:

int Buffer::get() {
    800043d0:	fe010113          	addi	sp,sp,-32
    800043d4:	00113c23          	sd	ra,24(sp)
    800043d8:	00813823          	sd	s0,16(sp)
    800043dc:	00913423          	sd	s1,8(sp)
    800043e0:	01213023          	sd	s2,0(sp)
    800043e4:	02010413          	addi	s0,sp,32
    800043e8:	00050493          	mv	s1,a0
    sem_wait(itemAvailable);
    800043ec:	02053503          	ld	a0,32(a0)
    800043f0:	ffffd097          	auipc	ra,0xffffd
    800043f4:	ecc080e7          	jalr	-308(ra) # 800012bc <_Z8sem_waitP3SEM>

    sem_wait(mutexHead);
    800043f8:	0284b503          	ld	a0,40(s1)
    800043fc:	ffffd097          	auipc	ra,0xffffd
    80004400:	ec0080e7          	jalr	-320(ra) # 800012bc <_Z8sem_waitP3SEM>

    int ret = buffer[head];
    80004404:	0084b703          	ld	a4,8(s1)
    80004408:	0104a783          	lw	a5,16(s1)
    8000440c:	00279693          	slli	a3,a5,0x2
    80004410:	00d70733          	add	a4,a4,a3
    80004414:	00072903          	lw	s2,0(a4)
    head = (head + 1) % cap;
    80004418:	0017879b          	addiw	a5,a5,1
    8000441c:	0004a703          	lw	a4,0(s1)
    80004420:	02e7e7bb          	remw	a5,a5,a4
    80004424:	00f4a823          	sw	a5,16(s1)
    sem_signal(mutexHead);
    80004428:	0284b503          	ld	a0,40(s1)
    8000442c:	ffffd097          	auipc	ra,0xffffd
    80004430:	ecc080e7          	jalr	-308(ra) # 800012f8 <_Z10sem_signalP3SEM>

    sem_signal(spaceAvailable);
    80004434:	0184b503          	ld	a0,24(s1)
    80004438:	ffffd097          	auipc	ra,0xffffd
    8000443c:	ec0080e7          	jalr	-320(ra) # 800012f8 <_Z10sem_signalP3SEM>

    return ret;
}
    80004440:	00090513          	mv	a0,s2
    80004444:	01813083          	ld	ra,24(sp)
    80004448:	01013403          	ld	s0,16(sp)
    8000444c:	00813483          	ld	s1,8(sp)
    80004450:	00013903          	ld	s2,0(sp)
    80004454:	02010113          	addi	sp,sp,32
    80004458:	00008067          	ret

000000008000445c <_ZN6Buffer6getCntEv>:

int Buffer::getCnt() {
    8000445c:	fe010113          	addi	sp,sp,-32
    80004460:	00113c23          	sd	ra,24(sp)
    80004464:	00813823          	sd	s0,16(sp)
    80004468:	00913423          	sd	s1,8(sp)
    8000446c:	01213023          	sd	s2,0(sp)
    80004470:	02010413          	addi	s0,sp,32
    80004474:	00050493          	mv	s1,a0
    int ret;

    sem_wait(mutexHead);
    80004478:	02853503          	ld	a0,40(a0)
    8000447c:	ffffd097          	auipc	ra,0xffffd
    80004480:	e40080e7          	jalr	-448(ra) # 800012bc <_Z8sem_waitP3SEM>
    sem_wait(mutexTail);
    80004484:	0304b503          	ld	a0,48(s1)
    80004488:	ffffd097          	auipc	ra,0xffffd
    8000448c:	e34080e7          	jalr	-460(ra) # 800012bc <_Z8sem_waitP3SEM>

    if (tail >= head) {
    80004490:	0144a783          	lw	a5,20(s1)
    80004494:	0104a903          	lw	s2,16(s1)
    80004498:	0327ce63          	blt	a5,s2,800044d4 <_ZN6Buffer6getCntEv+0x78>
        ret = tail - head;
    8000449c:	4127893b          	subw	s2,a5,s2
    } else {
        ret = cap - head + tail;
    }

    sem_signal(mutexTail);
    800044a0:	0304b503          	ld	a0,48(s1)
    800044a4:	ffffd097          	auipc	ra,0xffffd
    800044a8:	e54080e7          	jalr	-428(ra) # 800012f8 <_Z10sem_signalP3SEM>
    sem_signal(mutexHead);
    800044ac:	0284b503          	ld	a0,40(s1)
    800044b0:	ffffd097          	auipc	ra,0xffffd
    800044b4:	e48080e7          	jalr	-440(ra) # 800012f8 <_Z10sem_signalP3SEM>

    return ret;
}
    800044b8:	00090513          	mv	a0,s2
    800044bc:	01813083          	ld	ra,24(sp)
    800044c0:	01013403          	ld	s0,16(sp)
    800044c4:	00813483          	ld	s1,8(sp)
    800044c8:	00013903          	ld	s2,0(sp)
    800044cc:	02010113          	addi	sp,sp,32
    800044d0:	00008067          	ret
        ret = cap - head + tail;
    800044d4:	0004a703          	lw	a4,0(s1)
    800044d8:	4127093b          	subw	s2,a4,s2
    800044dc:	00f9093b          	addw	s2,s2,a5
    800044e0:	fc1ff06f          	j	800044a0 <_ZN6Buffer6getCntEv+0x44>

00000000800044e4 <_ZN6BufferD1Ev>:
Buffer::~Buffer() {
    800044e4:	fe010113          	addi	sp,sp,-32
    800044e8:	00113c23          	sd	ra,24(sp)
    800044ec:	00813823          	sd	s0,16(sp)
    800044f0:	00913423          	sd	s1,8(sp)
    800044f4:	02010413          	addi	s0,sp,32
    800044f8:	00050493          	mv	s1,a0
    putc('\n');
    800044fc:	00a00513          	li	a0,10
    80004500:	ffffd097          	auipc	ra,0xffffd
    80004504:	e90080e7          	jalr	-368(ra) # 80001390 <_Z4putcc>
    printString("Buffer deleted!\n");
    80004508:	00004517          	auipc	a0,0x4
    8000450c:	b1850513          	addi	a0,a0,-1256 # 80008020 <CONSOLE_STATUS+0x10>
    80004510:	ffffe097          	auipc	ra,0xffffe
    80004514:	bd0080e7          	jalr	-1072(ra) # 800020e0 <_Z11printStringPKc>
    while (getCnt() > 0) {
    80004518:	00048513          	mv	a0,s1
    8000451c:	00000097          	auipc	ra,0x0
    80004520:	f40080e7          	jalr	-192(ra) # 8000445c <_ZN6Buffer6getCntEv>
    80004524:	02a05c63          	blez	a0,8000455c <_ZN6BufferD1Ev+0x78>
        char ch = buffer[head];
    80004528:	0084b783          	ld	a5,8(s1)
    8000452c:	0104a703          	lw	a4,16(s1)
    80004530:	00271713          	slli	a4,a4,0x2
    80004534:	00e787b3          	add	a5,a5,a4
        putc(ch);
    80004538:	0007c503          	lbu	a0,0(a5)
    8000453c:	ffffd097          	auipc	ra,0xffffd
    80004540:	e54080e7          	jalr	-428(ra) # 80001390 <_Z4putcc>
        head = (head + 1) % cap;
    80004544:	0104a783          	lw	a5,16(s1)
    80004548:	0017879b          	addiw	a5,a5,1
    8000454c:	0004a703          	lw	a4,0(s1)
    80004550:	02e7e7bb          	remw	a5,a5,a4
    80004554:	00f4a823          	sw	a5,16(s1)
    while (getCnt() > 0) {
    80004558:	fc1ff06f          	j	80004518 <_ZN6BufferD1Ev+0x34>
    putc('!');
    8000455c:	02100513          	li	a0,33
    80004560:	ffffd097          	auipc	ra,0xffffd
    80004564:	e30080e7          	jalr	-464(ra) # 80001390 <_Z4putcc>
    putc('\n');
    80004568:	00a00513          	li	a0,10
    8000456c:	ffffd097          	auipc	ra,0xffffd
    80004570:	e24080e7          	jalr	-476(ra) # 80001390 <_Z4putcc>
    mem_free(buffer);
    80004574:	0084b503          	ld	a0,8(s1)
    80004578:	ffffd097          	auipc	ra,0xffffd
    8000457c:	bf8080e7          	jalr	-1032(ra) # 80001170 <_Z8mem_freePv>
    sem_close(itemAvailable);
    80004580:	0204b503          	ld	a0,32(s1)
    80004584:	ffffd097          	auipc	ra,0xffffd
    80004588:	cfc080e7          	jalr	-772(ra) # 80001280 <_Z9sem_closeP3SEM>
    sem_close(spaceAvailable);
    8000458c:	0184b503          	ld	a0,24(s1)
    80004590:	ffffd097          	auipc	ra,0xffffd
    80004594:	cf0080e7          	jalr	-784(ra) # 80001280 <_Z9sem_closeP3SEM>
    sem_close(mutexTail);
    80004598:	0304b503          	ld	a0,48(s1)
    8000459c:	ffffd097          	auipc	ra,0xffffd
    800045a0:	ce4080e7          	jalr	-796(ra) # 80001280 <_Z9sem_closeP3SEM>
    sem_close(mutexHead);
    800045a4:	0284b503          	ld	a0,40(s1)
    800045a8:	ffffd097          	auipc	ra,0xffffd
    800045ac:	cd8080e7          	jalr	-808(ra) # 80001280 <_Z9sem_closeP3SEM>
}
    800045b0:	01813083          	ld	ra,24(sp)
    800045b4:	01013403          	ld	s0,16(sp)
    800045b8:	00813483          	ld	s1,8(sp)
    800045bc:	02010113          	addi	sp,sp,32
    800045c0:	00008067          	ret

00000000800045c4 <_ZN10kmem_cache12cache_createEPcmPFvPvES3_>:
#include "../h/kmem_cache.hpp"

void kmem_cache::cache_create(char *n, size_t s, void (*ct)(void *), void (*dt)(void *)) {
    800045c4:	ff010113          	addi	sp,sp,-16
    800045c8:	00813423          	sd	s0,8(sp)
    800045cc:	01010413          	addi	s0,sp,16
    name = n;
    800045d0:	00b53023          	sd	a1,0(a0)
    sizeOfObject = s;
    800045d4:	00c53423          	sd	a2,8(a0)
    ctor = ct;
    800045d8:	00d53823          	sd	a3,16(a0)
    dtor = dt;
    800045dc:	00e53c23          	sd	a4,24(a0)
    number_of_slabs = 0;
    800045e0:	04053023          	sd	zero,64(a0)
    num_of_alloc_objects = 0;
    800045e4:	04052423          	sw	zero,72(a0)
    error_indicator = 0;
    800045e8:	02052023          	sw	zero,32(a0)

    empty_slabs = nullptr;
    800045ec:	02053423          	sd	zero,40(a0)
    not_empty_slabs = nullptr;
    800045f0:	02053823          	sd	zero,48(a0)
    full_slabs = nullptr;
    800045f4:	02053c23          	sd	zero,56(a0)
}
    800045f8:	00813403          	ld	s0,8(sp)
    800045fc:	01010113          	addi	sp,sp,16
    80004600:	00008067          	ret

0000000080004604 <_ZN10kmem_cache8add_slabEPPNS_4slabES1_>:

void kmem_cache::add_slab(kmem_cache::slab **head, kmem_cache::slab *slab) {
    80004604:	ff010113          	addi	sp,sp,-16
    80004608:	00813423          	sd	s0,8(sp)
    8000460c:	01010413          	addi	s0,sp,16
    slab->next = nullptr;
    80004610:	02063423          	sd	zero,40(a2)
    if(*head == nullptr){
    80004614:	0005b783          	ld	a5,0(a1)
    80004618:	02078063          	beqz	a5,80004638 <_ZN10kmem_cache8add_slabEPPNS_4slabES1_+0x34>
        *head = slab;
    }else{
        kmem_cache::slab *tmp = *head;
        while(tmp->next != nullptr){
    8000461c:	00078713          	mv	a4,a5
    80004620:	0287b783          	ld	a5,40(a5)
    80004624:	fe079ce3          	bnez	a5,8000461c <_ZN10kmem_cache8add_slabEPPNS_4slabES1_+0x18>
            tmp = tmp->next;
        }
        tmp->next = slab;
    80004628:	02c73423          	sd	a2,40(a4)
    }
}
    8000462c:	00813403          	ld	s0,8(sp)
    80004630:	01010113          	addi	sp,sp,16
    80004634:	00008067          	ret
        *head = slab;
    80004638:	00c5b023          	sd	a2,0(a1)
    8000463c:	ff1ff06f          	j	8000462c <_ZN10kmem_cache8add_slabEPPNS_4slabES1_+0x28>

0000000080004640 <_ZN10kmem_cache11delete_slabEPPNS_4slabES1_>:

int kmem_cache::delete_slab(kmem_cache::slab **head, kmem_cache::slab *slab) {
    80004640:	fe010113          	addi	sp,sp,-32
    80004644:	00113c23          	sd	ra,24(sp)
    80004648:	00813823          	sd	s0,16(sp)
    8000464c:	00913423          	sd	s1,8(sp)
    80004650:	02010413          	addi	s0,sp,32
    80004654:	00060493          	mv	s1,a2
    kmem_cache::slab* prev = nullptr;
    kmem_cache::slab* tmp = *head;
    80004658:	0005b783          	ld	a5,0(a1)

    if(tmp != nullptr && tmp == slab){
    8000465c:	02078663          	beqz	a5,80004688 <_ZN10kmem_cache11delete_slabEPPNS_4slabES1_+0x48>
    80004660:	00c78e63          	beq	a5,a2,8000467c <_ZN10kmem_cache11delete_slabEPPNS_4slabES1_+0x3c>
    80004664:	00000713          	li	a4,0
        *head = tmp->next;
    }else{
        while(tmp != nullptr && tmp != slab){
    80004668:	02078463          	beqz	a5,80004690 <_ZN10kmem_cache11delete_slabEPPNS_4slabES1_+0x50>
    8000466c:	02978263          	beq	a5,s1,80004690 <_ZN10kmem_cache11delete_slabEPPNS_4slabES1_+0x50>
            prev = tmp;
    80004670:	00078713          	mv	a4,a5
            tmp = tmp->next;
    80004674:	0287b783          	ld	a5,40(a5)
        while(tmp != nullptr && tmp != slab){
    80004678:	ff1ff06f          	j	80004668 <_ZN10kmem_cache11delete_slabEPPNS_4slabES1_+0x28>
        *head = tmp->next;
    8000467c:	0287b783          	ld	a5,40(a5)
    80004680:	00f5b023          	sd	a5,0(a1)
    80004684:	01c0006f          	j	800046a0 <_ZN10kmem_cache11delete_slabEPPNS_4slabES1_+0x60>
    80004688:	00078713          	mv	a4,a5
    8000468c:	fddff06f          	j	80004668 <_ZN10kmem_cache11delete_slabEPPNS_4slabES1_+0x28>
        }

        //if slab was not found
        if(tmp == nullptr)
    80004690:	04078e63          	beqz	a5,800046ec <_ZN10kmem_cache11delete_slabEPPNS_4slabES1_+0xac>
            return -1;

        if(prev != nullptr)
    80004694:	00070663          	beqz	a4,800046a0 <_ZN10kmem_cache11delete_slabEPPNS_4slabES1_+0x60>
            prev->next = tmp->next;
    80004698:	0287b783          	ld	a5,40(a5)
    8000469c:	02f73423          	sd	a5,40(a4)
    }
    slab->next = nullptr;
    800046a0:	0204b423          	sd	zero,40(s1)
    slab->limit = 0;
    800046a4:	0004b823          	sd	zero,16(s1)
    Buddy::buddy_free(slab->address);
    800046a8:	0004b503          	ld	a0,0(s1)
    800046ac:	ffffd097          	auipc	ra,0xffffd
    800046b0:	698080e7          	jalr	1688(ra) # 80001d44 <_ZN5Buddy10buddy_freeEPv>
    Buddy::buddy_free(slab->allocateArray);
    800046b4:	0204b503          	ld	a0,32(s1)
    800046b8:	ffffd097          	auipc	ra,0xffffd
    800046bc:	68c080e7          	jalr	1676(ra) # 80001d44 <_ZN5Buddy10buddy_freeEPv>
    slab->address = nullptr;
    800046c0:	0004b023          	sd	zero,0(s1)
    slab->allocateArray = nullptr;
    800046c4:	0204b023          	sd	zero,32(s1)
    Buddy::buddy_free(slab);
    800046c8:	00048513          	mv	a0,s1
    800046cc:	ffffd097          	auipc	ra,0xffffd
    800046d0:	678080e7          	jalr	1656(ra) # 80001d44 <_ZN5Buddy10buddy_freeEPv>
    return 0;
    800046d4:	00000513          	li	a0,0
}
    800046d8:	01813083          	ld	ra,24(sp)
    800046dc:	01013403          	ld	s0,16(sp)
    800046e0:	00813483          	ld	s1,8(sp)
    800046e4:	02010113          	addi	sp,sp,32
    800046e8:	00008067          	ret
            return -1;
    800046ec:	fff00513          	li	a0,-1
    800046f0:	fe9ff06f          	j	800046d8 <_ZN10kmem_cache11delete_slabEPPNS_4slabES1_+0x98>

00000000800046f4 <_ZN10kmem_cache18cache_alloc_bufferEm>:

int kmem_cache::cache_alloc_buffer(size_t size) {
    800046f4:	fd010113          	addi	sp,sp,-48
    800046f8:	02113423          	sd	ra,40(sp)
    800046fc:	02813023          	sd	s0,32(sp)
    80004700:	00913c23          	sd	s1,24(sp)
    80004704:	01213823          	sd	s2,16(sp)
    80004708:	01313423          	sd	s3,8(sp)
    8000470c:	01413023          	sd	s4,0(sp)
    80004710:	03010413          	addi	s0,sp,48
    80004714:	00050993          	mv	s3,a0
    80004718:	00058913          	mv	s2,a1
    void *res = Buddy::buddy_allocate(size);
    8000471c:	00058513          	mv	a0,a1
    80004720:	ffffd097          	auipc	ra,0xffffd
    80004724:	448080e7          	jalr	1096(ra) # 80001b68 <_ZN5Buddy14buddy_allocateEm>
    if(res == nullptr){
    80004728:	08050663          	beqz	a0,800047b4 <_ZN10kmem_cache18cache_alloc_bufferEm+0xc0>
    8000472c:	00050a13          	mv	s4,a0
        error_indicator = -1;
        return -1;
    }
    //add this empty slab to empty_slabs - buffer = slab
    slab *new_slab = (slab *)Buddy::buddy_allocate(sizeof(slab));
    80004730:	03000513          	li	a0,48
    80004734:	ffffd097          	auipc	ra,0xffffd
    80004738:	434080e7          	jalr	1076(ra) # 80001b68 <_ZN5Buddy14buddy_allocateEm>
    8000473c:	00050493          	mv	s1,a0
    if(new_slab == nullptr){
    80004740:	08050263          	beqz	a0,800047c4 <_ZN10kmem_cache18cache_alloc_bufferEm+0xd0>
        Buddy::buddy_free(res);
        error_indicator = -1;
        return -1;
    }
    number_of_slabs++;
    80004744:	0409b783          	ld	a5,64(s3)
    80004748:	00178793          	addi	a5,a5,1
    8000474c:	04f9b023          	sd	a5,64(s3)
    new_slab->address = res;
    80004750:	01453023          	sd	s4,0(a0)
    new_slab->counter = 0;
    80004754:	00053423          	sd	zero,8(a0)
    new_slab->sizeInBlocks = (size/BLOCK_SIZE) + (size%BLOCK_SIZE == 0 ? 0 : 1);
    80004758:	00c95793          	srli	a5,s2,0xc
    8000475c:	000015b7          	lui	a1,0x1
    80004760:	fff58593          	addi	a1,a1,-1 # fff <_entry-0x7ffff001>
    80004764:	00b97933          	and	s2,s2,a1
    80004768:	01203933          	snez	s2,s2
    8000476c:	01278933          	add	s2,a5,s2
    80004770:	01253c23          	sd	s2,24(a0)
    new_slab->limit = (new_slab->sizeInBlocks * BLOCK_SIZE) / this->sizeOfObject;
    80004774:	00c91913          	slli	s2,s2,0xc
    80004778:	0089b503          	ld	a0,8(s3)
    8000477c:	02a95533          	divu	a0,s2,a0
    80004780:	00a4b823          	sd	a0,16(s1)

    new_slab->allocateArray = (uint8 *)Buddy::buddy_allocate(sizeof(uint8)*new_slab->limit);
    80004784:	ffffd097          	auipc	ra,0xffffd
    80004788:	3e4080e7          	jalr	996(ra) # 80001b68 <_ZN5Buddy14buddy_allocateEm>
    8000478c:	02a4b023          	sd	a0,32(s1)
    if(new_slab->allocateArray == nullptr){
    80004790:	04050863          	beqz	a0,800047e0 <_ZN10kmem_cache18cache_alloc_bufferEm+0xec>
        Buddy::buddy_free(new_slab);
        error_indicator = -1;
        return -1;
    }
    //Buffer is totally empty
    for(uint64 i = 0; i < new_slab->limit; i++){
    80004794:	00000793          	li	a5,0
    80004798:	0104b703          	ld	a4,16(s1)
    8000479c:	06e7f663          	bgeu	a5,a4,80004808 <_ZN10kmem_cache18cache_alloc_bufferEm+0x114>
        new_slab->allocateArray[i] = 0;
    800047a0:	0204b703          	ld	a4,32(s1)
    800047a4:	00f70733          	add	a4,a4,a5
    800047a8:	00070023          	sb	zero,0(a4)
    for(uint64 i = 0; i < new_slab->limit; i++){
    800047ac:	00178793          	addi	a5,a5,1
    800047b0:	fe9ff06f          	j	80004798 <_ZN10kmem_cache18cache_alloc_bufferEm+0xa4>
        error_indicator = -1;
    800047b4:	fff00793          	li	a5,-1
    800047b8:	02f9a023          	sw	a5,32(s3)
        return -1;
    800047bc:	fff00513          	li	a0,-1
    800047c0:	0600006f          	j	80004820 <_ZN10kmem_cache18cache_alloc_bufferEm+0x12c>
        Buddy::buddy_free(res);
    800047c4:	000a0513          	mv	a0,s4
    800047c8:	ffffd097          	auipc	ra,0xffffd
    800047cc:	57c080e7          	jalr	1404(ra) # 80001d44 <_ZN5Buddy10buddy_freeEPv>
        error_indicator = -1;
    800047d0:	fff00793          	li	a5,-1
    800047d4:	02f9a023          	sw	a5,32(s3)
        return -1;
    800047d8:	fff00513          	li	a0,-1
    800047dc:	0440006f          	j	80004820 <_ZN10kmem_cache18cache_alloc_bufferEm+0x12c>
        Buddy::buddy_free(res);
    800047e0:	000a0513          	mv	a0,s4
    800047e4:	ffffd097          	auipc	ra,0xffffd
    800047e8:	560080e7          	jalr	1376(ra) # 80001d44 <_ZN5Buddy10buddy_freeEPv>
        Buddy::buddy_free(new_slab);
    800047ec:	00048513          	mv	a0,s1
    800047f0:	ffffd097          	auipc	ra,0xffffd
    800047f4:	554080e7          	jalr	1364(ra) # 80001d44 <_ZN5Buddy10buddy_freeEPv>
        error_indicator = -1;
    800047f8:	fff00793          	li	a5,-1
    800047fc:	02f9a023          	sw	a5,32(s3)
        return -1;
    80004800:	fff00513          	li	a0,-1
    80004804:	01c0006f          	j	80004820 <_ZN10kmem_cache18cache_alloc_bufferEm+0x12c>
    }

    add_slab(&empty_slabs, new_slab);
    80004808:	00048613          	mv	a2,s1
    8000480c:	02898593          	addi	a1,s3,40
    80004810:	00098513          	mv	a0,s3
    80004814:	00000097          	auipc	ra,0x0
    80004818:	df0080e7          	jalr	-528(ra) # 80004604 <_ZN10kmem_cache8add_slabEPPNS_4slabES1_>
    return 0;
    8000481c:	00000513          	li	a0,0
}
    80004820:	02813083          	ld	ra,40(sp)
    80004824:	02013403          	ld	s0,32(sp)
    80004828:	01813483          	ld	s1,24(sp)
    8000482c:	01013903          	ld	s2,16(sp)
    80004830:	00813983          	ld	s3,8(sp)
    80004834:	00013a03          	ld	s4,0(sp)
    80004838:	03010113          	addi	sp,sp,48
    8000483c:	00008067          	ret

0000000080004840 <_ZN10kmem_cache6shrinkEv>:

int kmem_cache::shrink() {
    80004840:	fd010113          	addi	sp,sp,-48
    80004844:	02113423          	sd	ra,40(sp)
    80004848:	02813023          	sd	s0,32(sp)
    8000484c:	00913c23          	sd	s1,24(sp)
    80004850:	01213823          	sd	s2,16(sp)
    80004854:	01313423          	sd	s3,8(sp)
    80004858:	01413023          	sd	s4,0(sp)
    8000485c:	03010413          	addi	s0,sp,48
    int res = 0;
    if(empty_slabs == nullptr) return res; //can't shrink
    80004860:	02853983          	ld	s3,40(a0)
    80004864:	06098a63          	beqz	s3,800048d8 <_ZN10kmem_cache6shrinkEv+0x98>
    80004868:	00050913          	mv	s2,a0
    slab* tmp;

    if(not_empty_slabs != nullptr)
    8000486c:	03053783          	ld	a5,48(a0)
    80004870:	00078463          	beqz	a5,80004878 <_ZN10kmem_cache6shrinkEv+0x38>
        tmp = empty_slabs->next;
    80004874:	0289b983          	ld	s3,40(s3)
int kmem_cache::shrink() {
    80004878:	00098493          	mv	s1,s3
    int res = 0;
    8000487c:	00000a13          	li	s4,0
    else
        tmp = empty_slabs;

    slab *forDelet = tmp;
    while(tmp != nullptr){
    80004880:	02048463          	beqz	s1,800048a8 <_ZN10kmem_cache6shrinkEv+0x68>
        tmp = tmp->next;
    80004884:	0284b483          	ld	s1,40(s1)
        res += forDelet->sizeInBlocks;
    80004888:	0189b783          	ld	a5,24(s3)
    8000488c:	01478a3b          	addw	s4,a5,s4
        delete_slab(&empty_slabs, forDelet);
    80004890:	00098613          	mv	a2,s3
    80004894:	02890593          	addi	a1,s2,40
    80004898:	00090513          	mv	a0,s2
    8000489c:	00000097          	auipc	ra,0x0
    800048a0:	da4080e7          	jalr	-604(ra) # 80004640 <_ZN10kmem_cache11delete_slabEPPNS_4slabES1_>
    while(tmp != nullptr){
    800048a4:	fddff06f          	j	80004880 <_ZN10kmem_cache6shrinkEv+0x40>
    }
    number_of_slabs -= (uint64)res;
    800048a8:	04093783          	ld	a5,64(s2)
    800048ac:	414787b3          	sub	a5,a5,s4
    800048b0:	04f93023          	sd	a5,64(s2)
    return res;
}
    800048b4:	000a0513          	mv	a0,s4
